(dp0
VS7200.OPCServer
p1
(dp2
VMicroWin.PLC Bldg A FL3.A-FL3-Door28.Door Status
p3
(lp4
sVMicroWin.PLC Bldg C FL3.PLC4 Dan C FL3 Power Loss
p5
(lp6
sVMicroWin.PLC Bldg A FL2.A-FL2-Door10.Command Door Unlock
p7
(lp8
sVMicroWin.PLC Bldg C FL3.C-FL3-Door32.Door Status
p9
(lp10
sVMicroWin.PLC Bldg B FL2.B-FL2-Door19.Door Status
p11
(lp12
sVMicroWin.PLC Bldg B FL3.B-FL3-Door25.Output Lock State
p13
(lp14
sVMicroWin.PLC Bldg C FL2.C-FL2-Door16.Output Lock State
p15
(lp16
sVMicroWin.PLC Bldg B FL3.B-FL3-Door27.Open Time Alarm Delay
p17
(lp18
sVMicroWin.PLC Bldg D7-1 FL2-3.D7-1-FL2-Door5.Open Time Alarm Delay
p19
(lp20
sVMicroWin.PLC Bldg D7-1 FL2-3.D7-1-FL2-Door2.Push Button Status
p21
(lp22
sVMicroWin.PLC Bldg B FL2.B-FL2-Door02.Open Time Alarm Delay
p23
(lp24
sVMicroWin.PLC Bldg B FL3.B-FL3-Door38.Disable Push Button
p25
(lp26
sVMicroWin.PLC Bldg C FL2.C-FL2-Door11.Door Status
p27
(lp28
sVMicroWin.PLC Bldg C FL2.C-FL2-Door12.Output Lock State
p29
(lp30
sVMicroWin.PLC Bldg A FL3.A-FL3-Door39.Door Status
p31
(lp32
sVMicroWin.PLC Bldg D7-2 FL2-3.D7-2-FL2-Door6.Open Time Alarm Delay
p33
(lp34
sVMicroWin.PLC Bldg A FL2.A-FL2-Door08.Door Left  Alarm
p35
(lp36
sVMicroWin.PLC Bldg A FL3.A-FL3-Door40.Door Left  Alarm
p37
(lp38
sVMicroWin.PLC Bldg C FL3.C-FL3-Door21.Command Door Unlock
p39
(lp40
sVMicroWin.PLC Bldg C FL2.C-FL2-Door03.Force Door Alarm
p41
(lp42
sVMicroWin.PLC Bldg D7-1 FL2-3.D7-1-FL2-Door6.Door Status
p43
(lp44
sVMicroWin.PLC Bldg A FL3.A-FL3-Door36.Open Time Alarm Delay
p45
(lp46
sVMicroWin.PLC Bldg B FL2.B-FL2-Door13.Disable Push Button
p47
(lp48
sVMicroWin.PLC Bldg C FL2.C-FL2-Door08.Disable Push Button
p49
(lp50
sVMicroWin.PLC Bldg A FL2.A-FL2-Door19.Open Time Alarm Delay
p51
(lp52
sVMicroWin.PLC Bldg C FL2.C-FL2-Door08.Force Door Alarm
p53
(lp54
sVMicroWin.PLC Bldg B FL3.B-FL3-Door35.Open Time Alarm Delay
p55
(lp56
sVMicroWin.PLC Bldg D7-2 FL2-3.D7-2-FL3-Door11.Push Button Status
p57
(lp58
sVMicroWin.PLC Bldg B FL3.B-FL3-Door40.Door Status
p59
(lp60
sVMicroWin.PLC Bldg C FL2.C-FL2-Door15.Door Left  Alarm
p61
(lp62
sVMicroWin.PLC Bldg C FL3.C-FL3-Door37.Output Lock State
p63
(lp64
sVMicroWin.PLC Bldg C FL3.C-FL3-Door40.Force Door Alarm
p65
(lp66
sVMicroWin.PLC Bldg A FL3.A-FL3-Door21.Door Left  Alarm
p67
(lp68
sVMicroWin.PLC Bldg B FL2.B-FL2-Door02.Output Lock State
p69
(lp70
sVMicroWin.PLC Bldg B FL2.B-FL2-Door17.Disable Push Button
p71
(lp72
sVMicroWin.PLC Bldg A FL3.A-FL3-Door32.Door Status
p73
(lp74
sVMicroWin.PLC Bldg A FL3.A-FL3-Door28.Force Door Alarm
p75
(lp76
sVMicroWin.PLC Bldg B FL2.B-FL2-Door03.Command Door Unlock
p77
(lp78
sVMicroWin.PLC Bldg A FL2.A-FL2-Door17.Door Status
p79
(lp80
sVMicroWin.PLC Bldg A FL3.A-FL3-Door21.Disable Push Button
p81
(lp82
sVMicroWin.PLC Bldg C FL2.C-FL2-Door03.Open Time Alarm Delay
p83
(lp84
sVMicroWin.PLC Bldg B FL3.B-FL3-Door22.Push Button Status
p85
(lp86
sVMicroWin.PLC Bldg A FL2.A-FL2-Door14.Door Left  Alarm
p87
(lp88
sVMicroWin.PLC Bldg D7-2 FL2-3.D7-2-FL3-Door7.Door Left  Alarm
p89
(lp90
sVMicroWin.PLC Bldg B FL2.B-FL2-Door08.Output Lock State
p91
(lp92
sVMicroWin.PLC Bldg B FL3.B-FL3-Door31.Output Lock State
p93
(lp94
sVMicroWin.PLC Bldg C FL2.C-FL2-Door12.Door Status
p95
(lp96
sVMicroWin.PLC Bldg D7-1 FL2-3.D7-1-FL2-Door1.Door Status
p97
(lp98
sVMicroWin.PLC Bldg A FL2.A-FL2-Door13.Force Door Alarm
p99
(lp100
sVMicroWin.PLC Bldg B FL3.B-FL3-Door39.Command Door Unlock
p101
(lp102
sVMicroWin.PLC Bldg A FL3.A-FL3-Door33.Disable Push Button
p103
(lp104
sVMicroWin.PLC Bldg A FL2.A-FL2-Door04.Door Left  Alarm
p105
(lp106
sVMicroWin.PLC Bldg B FL2.B-FL2-Door08.Force Door Alarm
p107
(lp108
sVMicroWin.PLC Bldg B FL3.B-FL3-Door38.Force Door Alarm
p109
(lp110
sVMicroWin.PLC Bldg D7-1 FL2-3.D7-1-FL3-Door9.Door Status
p111
(lp112
sS'info'
p113
(lp114
(S'Protocol'
p115
S'DCOM'
p116
tp117
a(S'Class'
p118
S'Graybox.OPC.DAWrapper'
p119
tp120
a(S'Client Name'
p121
VOpenOPC
p122
tp123
a(S'OPC Host'
p124
S'admin-d57084cf6'
p125
tp126
a(S'OPC Server'
p127
VS7200.OPCServer
p128
tp129
a(S'State'
p130
S'Running'
p131
tp132
a(S'Version'
p133
S'3.1 (Build 60)'
p134
tp135
a(S'Browser'
p136
S'Hierarchical'
p137
tp138
a(S'Start Time'
p139
S'08/02/11 16:20:07'
p140
tp141
a(S'Current Time'
p142
S'08/02/11 16:20:14'
p143
tp144
a(S'Vendor'
p145
VSimatic\u0e0e S7-200 PC Access\u0e09 OPC-Server DataAccess-V1.0A/2.05/3.0
p146
tp147
asVMicroWin.PLC Bldg B FL3.PLC3 Dan B FL3 Power Loss
p148
(lp149
sVMicroWin.PLC Bldg D7-2 FL2-3.D7-2-FL3-Door8.Open Time Alarm Delay
p150
(lp151
sVMicroWin.PLC Bldg A FL3.A-FL3-Door26.Door Status
p152
(lp153
sVMicroWin.PLC Bldg A FL2.A-FL2-Door10.Push Button Status
p154
(lp155
sVMicroWin.PLC Bldg A FL3.A-FL3-Door24.Output Lock State
p156
(lp157
sVMicroWin.PLC Bldg A FL2.A-FL2-Door07.Output Lock State
p158
(lp159
sVMicroWin.PLC Bldg C FL3.PLC-Slave Addr3-Online-Status
p160
(lp161
sVMicroWin.PLC Bldg A FL2.A-FL2-Door11.Command Door Unlock
p162
(lp163
sVMicroWin.PLC Bldg D7-1 FL2-3.D7-1-FL3-Door10.Door Status
p164
(lp165
sVMicroWin.PLC Bldg B FL2.B-FL2-Door06.Push Button Status
p166
(lp167
sVMicroWin.PLC Bldg B FL2.B-FL2-Door15.Output Lock State
p168
(lp169
sVMicroWin.PLC Bldg C FL3.C-FL3-Door33.Door Status
p170
(lp171
sVMicroWin.PLC Bldg C FL2.C-FL2-Door16.Push Button Status
p172
(lp173
sVMicroWin.PLC Bldg B FL3.B-FL3-Door37.Force Door Alarm
p174
(lp175
sVMicroWin.PLC Bldg B FL2.B-FL2-Door13.Force Door Alarm
p176
(lp177
sVMicroWin.PLC Bldg D7-1 FL2-3.D7-1-FL2-Door1.Output Lock State
p178
(lp179
sVMicroWin.PLC Bldg D7-1 FL2-3.D7-1-FL3-Door11.Push Button Status
p180
(lp181
sVMicroWin.PLC Bldg B FL2.B-FL2-Door06.Command Door Unlock
p182
(lp183
sVMicroWin.PLC Bldg D7-2 FL2-3.D7-2-FL3-Door9.Door Status
p184
(lp185
sVMicroWin.PLC Bldg B FL3.B-FL3-Door36.Push Button Status
p186
(lp187
sVMicroWin.PLC Bldg B FL3.B-FL3-Door22.Force Door Alarm
p188
(lp189
sVMicroWin.PLC Bldg D7-1 FL2-3.D7-1-FL2-Door2.Disable Push Button
p190
(lp191
sVMicroWin.PLC Bldg C FL3.C-FL3-Door31.Force Door Alarm
p192
(lp193
sVMicroWin.PLC Bldg D7-1 FL2-3.D7-1-FL2-Door5.Push Button Status
p194
(lp195
sVMicroWin.PLC Bldg D7-1 FL2-3.D7-1-FL3-Door12.Disable Push Button
p196
(lp197
sVMicroWin.PLC Bldg B FL3.B-FL3-Door22.Output Lock State
p198
(lp199
sVMicroWin.PLC Bldg D7-2 FL2-3.D7-2-FL2-Door2.Command Door Unlock
p200
(lp201
sVMicroWin.PLC Bldg A FL2.A-FL2-Door12.Door Status
p202
(lp203
sVMicroWin.PLC Bldg D7-2 FL2-3.D7-2-FL3-Door10.Output Lock State
p204
(lp205
sVMicroWin.PLC Bldg A FL2.A-FL2-Door18.Output Lock State
p206
(lp207
sVMicroWin.PLC Bldg A FL3.A-FL3-Door25.Command Door Unlock
p208
(lp209
sVMicroWin.PLC Bldg C FL2.C-FL2-Door14.Output Lock State
p210
(lp211
sVMicroWin.PLC Bldg A FL3.A-FL3-Door36.Force Door Alarm
p212
(lp213
sVMicroWin.PLC Bldg B FL2.B-FL2-Door01.Push Button Status
p214
(lp215
sVMicroWin.PLC Bldg D7-2 FL2-3.D7-2-FL2-Door4.Door Status
p216
(lp217
sVMicroWin.PLC Bldg A FL2.A-FL2-Door07.Door Status
p218
(lp219
sVMicroWin.PLC Bldg A FL3.A-FL3-Door30.Force Door Alarm
p220
(lp221
sVMicroWin.PLC Bldg C FL3.C-FL3-Door23.Door Left  Alarm
p222
(lp223
sVMicroWin.PLC Bldg B FL2.B-FL2-Door12.Open Time Alarm Delay
p224
(lp225
sVMicroWin.PLC Bldg A FL2.A-FL2-Door07.Push Button Status
p226
(lp227
sVMicroWin.PLC Bldg C FL3.C-FL3-Door24.Door Status
p228
(lp229
sVMicroWin.PLC Bldg C FL2.C-FL2-Door12.Force Door Alarm
p230
(lp231
sVMicroWin.PLC Bldg C FL3.C-FL3-Door28.Output Lock State
p232
(lp233
sVMicroWin.PLC Bldg A FL2.A-FL2-Door04.Command Door Unlock
p234
(lp235
sVMicroWin.PLC Bldg A FL3.A-FL3-Door39.Disable Push Button
p236
(lp237
sVMicroWin.PLC Bldg B FL2.B-FL2-Door15.Disable Push Button
p238
(lp239
sVMicroWin.PLC Bldg D7-1 FL2-3.PLC-Slave Addr3-Online-Status
p240
(lp241
sVMicroWin.PLC Bldg B FL2.B-FL2-Door15.Command Door Unlock
p242
(lp243
sVMicroWin.PLC Bldg A FL3.A-FL3-Door33.Open Time Alarm Delay
p244
(lp245
sVMicroWin.PLC Bldg B FL3.B-FL3-Door33.Force Door Alarm
p246
(lp247
sVMicroWin.PLC Bldg B FL2.B-FL2-Door07.Force Door Alarm
p248
(lp249
sVMicroWin.PLC Bldg D7-1 FL2-3.D7-1-FL3-Door8.Door Left  Alarm
p250
(lp251
sVMicroWin.PLC Bldg B FL3.B-FL3-Door27.Push Button Status
p252
(lp253
sVMicroWin.PLC Bldg B FL2.B-FL2-Door06.Force Door Alarm
p254
(lp255
sVMicroWin.PLC Bldg B FL2.B-FL2-Door10.Command Door Unlock
p256
(lp257
sVMicroWin.PLC Bldg A FL2.A-FL2-Door14.Disable Push Button
p258
(lp259
sVMicroWin.PLC Bldg B FL2.B-FL2-Door14.Open Time Alarm Delay
p260
(lp261
sVMicroWin.PLC Bldg D7-1 FL2-3.D7-1-FL3-Door9.Command Door Unlock
p262
(lp263
sVMicroWin.PLC Bldg C FL2.C-FL2-Door06.Push Button Status
p264
(lp265
sVMicroWin.PLC Bldg A FL2.A-FL2-Door04.Disable Push Button
p266
(lp267
sVMicroWin.PLC Bldg C FL3.C-FL3-Door26.Force Door Alarm
p268
(lp269
sVMicroWin.PLC Bldg C FL2.C-FL2-Door14.Open Time Alarm Delay
p270
(lp271
sVMicroWin.PLC Bldg B FL2.B-FL2-Door20.Output Lock State
p272
(lp273
sVMicroWin.PLC Bldg B FL2.B-FL2-Door11.Command Door Unlock
p274
(lp275
sVMicroWin.PLC Bldg B FL3.B-FL3-Door36.Output Lock State
p276
(lp277
sVMicroWin.PLC Bldg C FL3.C-FL3-Door35.Output Lock State
p278
(lp279
sVMicroWin.PLC Bldg C FL3.C-FL3-Door26.Output Lock State
p280
(lp281
sVMicroWin.PLC Bldg B FL3.B-FL3-Door21.Disable Push Button
p282
(lp283
sVMicroWin.PLC Bldg D7-1 FL2-3.PLC1 Dan D1 Power Loss
p284
(lp285
sVMicroWin.PLC Bldg C FL3.C-FL3-Door30.Output Lock State
p286
(lp287
sVMicroWin.PLC Bldg C FL3.C-FL3-Door25.Command Door Unlock
p288
(lp289
sVMicroWin.PLC Bldg B FL2.B-FL2-Door11.Push Button Status
p290
(lp291
sVMicroWin.PLC Bldg C FL2.C-FL2-Door05.Command Door Unlock
p292
(lp293
sVMicroWin.PLC Bldg B FL2.B-FL2-Door08.Door Status
p294
(lp295
sVMicroWin.PLC Bldg B FL3.B-FL3-Door24.Output Lock State
p296
(lp297
sVMicroWin.PLC Bldg C FL3.PLC-Slave Addr4-Online-Status
p298
(lp299
sVMicroWin.PLC Bldg A FL2.A-FL2-Door10.Door Status
p300
(lp301
sVMicroWin.PLC Bldg B FL3.B-FL3-Door32.Disable Push Button
p302
(lp303
sVMicroWin.PLC Bldg D7-1 FL2-3.D7-1-FL3-Door11.Open Time Alarm Delay
p304
(lp305
sVMicroWin.PLC Bldg A FL3.A-FL3-Door37.Command Door Unlock
p306
(lp307
sVMicroWin.PLC Bldg B FL3.B-FL3-Door39.Open Time Alarm Delay
p308
(lp309
sVMicroWin.PLC Bldg B FL3.B-FL3-Door40.Door Left  Alarm
p310
(lp311
sVMicroWin.PLC Bldg A FL3.A-FL3-Door29.Door Status
p312
(lp313
sVMicroWin.PLC Bldg B FL3.B-FL3-Door32.Door Left  Alarm
p314
(lp315
sVMicroWin.PLC Bldg B FL3.B-FL3-Door28.Force Door Alarm
p316
(lp317
sVMicroWin.PLC Bldg B FL2.B-FL2-Door09.Output Lock State
p318
(lp319
sVMicroWin.PLC Bldg A FL2.A-FL2-Door13.Push Button Status
p320
(lp321
sVMicroWin.PLC Bldg A FL3.A-FL3-Door29.Disable Push Button
p322
(lp323
sVMicroWin.PLC Bldg B FL3.B-FL3-Door30.Output Lock State
p324
(lp325
sVMicroWin.PLC Bldg B FL3.PLC-Slave Addr5-Online-Status
p326
(lp327
sVMicroWin.PLC Bldg A FL3.A-FL3-Door35.Command Door Unlock
p328
(lp329
sVMicroWin.PLC Bldg A FL2.A-FL2-Door03.Push Button Status
p330
(lp331
sVMicroWin.PLC Bldg C FL3.C-FL3-Door30.Door Status
p332
(lp333
sVMicroWin.PLC Bldg C FL2.C-FL2-Door16.Force Door Alarm
p334
(lp335
sVMicroWin.PLC Bldg D7-2 FL2-3.D7-2-FL3-Door10.Disable Push Button
p336
(lp337
sVMicroWin.PLC Bldg A FL3.A-FL3-Door30.Command Door Unlock
p338
(lp339
sVMicroWin.PLC Bldg A FL3.A-FL3-Door38.Door Status
p340
(lp341
sVMicroWin.PLC Bldg A FL2.A-FL2-Door02.Door Status
p342
(lp343
sVMicroWin.PLC Bldg A FL3.A-FL3-Door33.Door Left  Alarm
p344
(lp345
sVMicroWin.PLC Bldg A FL2.A-FL2-Door11.Output Lock State
p346
(lp347
sVMicroWin.PLC Bldg C FL2.C-FL2-Door09.Push Button Status
p348
(lp349
sVMicroWin.PLC Bldg D7-2 FL2-3.D7-2-FL2-Door3.Force Door Alarm
p350
(lp351
sVMicroWin.PLC Bldg D7-2 FL2-3.D7-2-FL3-Door7.Push Button Status
p352
(lp353
sVMicroWin.PLC Bldg B FL3.B-FL3-Door36.Disable Push Button
p354
(lp355
sVMicroWin.PLC Bldg B FL2.B-FL2-Door18.Command Door Unlock
p356
(lp357
sVMicroWin.PLC Bldg B FL3.B-FL3-Door29.Disable Push Button
p358
(lp359
sVMicroWin.PLC Bldg B FL2.B-FL2-Door18.Force Door Alarm
p360
(lp361
sVMicroWin.PLC Bldg C FL3.C-FL3-Door22.Push Button Status
p362
(lp363
sVMicroWin.PLC Bldg A FL3.A-FL3-Door21.Output Lock State
p364
(lp365
sVMicroWin.PLC Bldg B FL2.B-FL2-Door17.Force Door Alarm
p366
(lp367
sVMicroWin.PLC Bldg A FL2.A-FL2-Door09.Door Left  Alarm
p368
(lp369
sVMicroWin.PLC Bldg B FL2.B-FL2-Door16.Door Left  Alarm
p370
(lp371
sVMicroWin.PLC Bldg C FL2.C-FL2-Door01.Command Door Unlock
p372
(lp373
sVMicroWin.PLC Bldg C FL3.C-FL3-Door40.Open Time Alarm Delay
p374
(lp375
sVMicroWin.PLC Bldg A FL2.A-FL2-Door05.Disable Push Button
p376
(lp377
sVMicroWin.PLC Bldg C FL2.C-FL2-Door19.Door Status
p378
(lp379
sVMicroWin.PLC Bldg D7-1 FL2-3.D7-1-FL2-Door4.Command Door Unlock
p380
(lp381
sVMicroWin.PLC Bldg D7-1 FL2-3.D7-1-FL3-Door9.Output Lock State
p382
(lp383
sVMicroWin.PLC Bldg A FL3.A-FL3-Door25.Disable Push Button
p384
(lp385
sVMicroWin.PLC Bldg D7-2 FL2-3.D7-2-FL2-Door2.Force Door Alarm
p386
(lp387
sVMicroWin.PLC Bldg A FL2.A-FL2-Door09.Command Door Unlock
p388
(lp389
sVMicroWin.PLC Bldg A FL3.A-FL3-Door40.Command Door Unlock
p390
(lp391
sVMicroWin.PLC Bldg A FL2.A-FL2-Door07.Force Door Alarm
p392
(lp393
sVMicroWin.PLC Bldg C FL2.C-FL2-Door05.Door Left  Alarm
p394
(lp395
sVMicroWin.PLC Bldg B FL2.B-FL2-Door02.Push Button Status
p396
(lp397
sVMicroWin.PLC Bldg A FL3.A-FL3-Door39.Output Lock State
p398
(lp399
sVMicroWin.PLC Bldg B FL2.B-FL2-Door11.Door Left  Alarm
p400
(lp401
sVMicroWin.PLC Bldg B FL3.B-FL3-Door22.Command Door Unlock
p402
(lp403
sVMicroWin.PLC Bldg D7-2 FL2-3.D7-2-FL3-Door11.Output Lock State
p404
(lp405
sVMicroWin.PLC Bldg C FL3.PLC3 Dan C FL3 Power Loss
p406
(lp407
sVMicroWin.PLC Bldg A FL3.A-FL3-Door35.Door Left  Alarm
p408
(lp409
sVMicroWin.PLC Bldg A FL2.A-FL2-Door14.Command Door Unlock
p410
(lp411
sVMicroWin.PLC Bldg A FL2.A-FL2-Door08.Output Lock State
p412
(lp413
sVMicroWin.PLC Bldg B FL3.B-FL3-Door28.Push Button Status
p414
(lp415
sVMicroWin.PLC Bldg B FL2.B-FL2-Door13.Door Status
p416
(lp417
sVMicroWin.PLC Bldg D7-1 FL2-3.D7-1-FL3-Door11.Disable Push Button
p418
(lp419
sVMicroWin.PLC Bldg A FL2.A-FL2-Door12.Disable Push Button
p420
(lp421
sVMicroWin.PLC Bldg C FL3.C-FL3-Door24.Open Time Alarm Delay
p422
(lp423
sVMicroWin.PLC Bldg A FL2.A-FL2-Door18.Door Status
p424
(lp425
sVMicroWin.PLC Bldg B FL2.B-FL2-Door06.Output Lock State
p426
(lp427
sVMicroWin.PLC Bldg D7-2 FL2-3.D7-2-FL3-Door9.Command Door Unlock
p428
(lp429
sVMicroWin.PLC Bldg C FL2.C-FL2-Door20.Open Time Alarm Delay
p430
(lp431
sVMicroWin.PLC Bldg C FL3.C-FL3-Door21.Output Lock State
p432
(lp433
sVMicroWin.PLC Bldg D7-1 FL2-3.D7-1-FL2-Door3.Command Door Unlock
p434
(lp435
sVMicroWin.PLC Bldg A FL3.A-FL3-Door35.Output Lock State
p436
(lp437
sVMicroWin.PLC Bldg D7-2 FL2-3.D7-2-FL2-Door6.Force Door Alarm
p438
(lp439
sVMicroWin.PLC Bldg A FL2.A-FL2-Door11.Open Time Alarm Delay
p440
(lp441
sVMicroWin.PLC Bldg C FL2.C-FL2-Door10.Force Door Alarm
p442
(lp443
sVMicroWin.PLC Bldg A FL3.PLC5 Dan A FL3 Power Loss
p444
(lp445
sVMicroWin.PLC Bldg C FL3.C-FL3-Door32.Command Door Unlock
p446
(lp447
sVMicroWin.PLC Bldg D7-2 FL2-3.D7-2-FL3-Door8.Output Lock State
p448
(lp449
sVMicroWin.PLC Bldg D7-2 FL2-3.D7-2-FL3-Door9.Output Lock State
p450
(lp451
sVMicroWin.PLC Bldg A FL2.A-FL2-Door12.Push Button Status
p452
(lp453
sVMicroWin.PLC Bldg C FL2.C-FL2-Door13.Output Lock State
p454
(lp455
sVMicroWin.PLC Bldg D7-1 FL2-3.D7-1-FL2-Door6.Command Door Unlock
p456
(lp457
sVMicroWin.PLC Bldg D7-2 FL2-3.D7-2-FL3-Door10.Force Door Alarm
p458
(lp459
sVMicroWin.PLC Bldg C FL2.C-FL2-Door09.Command Door Unlock
p460
(lp461
sVMicroWin.PLC Bldg B FL2.B-FL2-Door19.Open Time Alarm Delay
p462
(lp463
sVMicroWin.PLC Bldg C FL2.C-FL2-Door04.Output Lock State
p464
(lp465
sVMicroWin.PLC Bldg C FL2.C-FL2-Door10.Output Lock State
p466
(lp467
sVMicroWin.PLC Bldg A FL3.A-FL3-Door40.Disable Push Button
p468
(lp469
sVMicroWin.PLC Bldg A FL3.A-FL3-Door25.Open Time Alarm Delay
p470
(lp471
sVMicroWin.PLC Bldg D7-1 FL2-3.D7-1-FL3-Door12.Door Left  Alarm
p472
(lp473
sVMicroWin.PLC Bldg A FL3.A-FL3-Door40.Door Status
p474
(lp475
sVMicroWin.PLC Bldg A FL2.A-FL2-Door03.Door Status
p476
(lp477
sVMicroWin.PLC Bldg C FL2.C-FL2-Door04.Door Status
p478
(lp479
sVMicroWin.PLC Bldg B FL2.B-FL2-Door07.Command Door Unlock
p480
(lp481
sVMicroWin.PLC Bldg C FL3.C-FL3-Door36.Push Button Status
p482
(lp483
sVMicroWin.PLC Bldg B FL2.B-FL2-Door05.Push Button Status
p484
(lp485
sVMicroWin.PLC Bldg B FL3.B-FL3-Door29.Push Button Status
p486
(lp487
sVMicroWin.PLC Bldg A FL3.A-FL3-Door30.Push Button Status
p488
(lp489
sVMicroWin.PLC Bldg C FL2.C-FL2-Door06.Output Lock State
p490
(lp491
sVMicroWin.PLC Bldg D7-2 FL2-3.D7-2-FL3-Door8.Force Door Alarm
p492
(lp493
sVMicroWin.PLC Bldg B FL2.B-FL2-Door01.Open Time Alarm Delay
p494
(lp495
sVMicroWin.PLC Bldg C FL3.C-FL3-Door21.Disable Push Button
p496
(lp497
sVMicroWin.PLC Bldg B FL2.B-FL2-Door01.Disable Push Button
p498
(lp499
sVMicroWin.PLC Bldg B FL2.B-FL2-Door06.Disable Push Button
p500
(lp501
sVMicroWin.PLC Bldg A FL2.A-FL2-Door06.Push Button Status
p502
(lp503
sVMicroWin.PLC Bldg A FL2.A-FL2-Door03.Open Time Alarm Delay
p504
(lp505
sVMicroWin.PLC Bldg B FL2.B-FL2-Door19.Door Left  Alarm
p506
(lp507
sVMicroWin.PLC Bldg D7-2 FL2-3.D7-2-FL2-Door5.Force Door Alarm
p508
(lp509
sVMicroWin.PLC Bldg C FL3.C-FL3-Door34.Door Left  Alarm
p510
(lp511
sVMicroWin.PLC Bldg A FL3.A-FL3-Door26.Output Lock State
p512
(lp513
sVMicroWin.PLC Bldg A FL3.A-FL3-Door25.Push Button Status
p514
(lp515
sVMicroWin.PLC Bldg A FL2.A-FL2-Door04.Force Door Alarm
p516
(lp517
sVMicroWin.PLC Bldg B FL3.B-FL3-Door23.Force Door Alarm
p518
(lp519
sVMicroWin.PLC Bldg A FL2.A-FL2-Door17.Door Left  Alarm
p520
(lp521
sVMicroWin.PLC Bldg A FL3.A-FL3-Door35.Disable Push Button
p522
(lp523
sVMicroWin.PLC Bldg B FL2.B-FL2-Door01.Command Door Unlock
p524
(lp525
sVMicroWin.PLC Bldg C FL3.C-FL3-Door26.Door Left  Alarm
p526
(lp527
sVMicroWin.PLC Bldg B FL3.B-FL3-Door24.Disable Push Button
p528
(lp529
sVMicroWin.PLC Bldg D7-1 FL2-3.D7-1-FL3-Door9.Push Button Status
p530
(lp531
sVMicroWin.PLC Bldg B FL3.B-FL3-Door37.Output Lock State
p532
(lp533
sVMicroWin.PLC Bldg C FL2.C-FL2-Door10.Door Status
p534
(lp535
sVMicroWin.PLC Bldg A FL3.A-FL3-Door28.Door Left  Alarm
p536
(lp537
sVMicroWin.PLC Bldg B FL2.B-FL2-Door03.Disable Push Button
p538
(lp539
sVMicroWin.PLC Bldg B FL3.B-FL3-Door35.Disable Push Button
p540
(lp541
sVMicroWin.PLC Bldg D7-1 FL2-3.D7-1-FL2-Door5.Door Left  Alarm
p542
(lp543
sVMicroWin.PLC Bldg A FL2.A-FL2-Door08.Command Door Unlock
p544
(lp545
sVMicroWin.PLC Bldg D7-1 FL2-3.D7-1-FL2-Door6.Disable Push Button
p546
(lp547
sVMicroWin.PLC Bldg B FL3.B-FL3-Door40.Open Time Alarm Delay
p548
(lp549
sVMicroWin.PLC Bldg C FL2.C-FL2-Door13.Command Door Unlock
p550
(lp551
sVMicroWin.PLC Bldg A FL2.A-FL2-Door17.Output Lock State
p552
(lp553
sVMicroWin.PLC Bldg B FL2.B-FL2-Door20.Push Button Status
p554
(lp555
sVMicroWin.PLC Bldg D7-1 FL2-3.D7-1-FL3-Door10.Door Left  Alarm
p556
(lp557
sVMicroWin.PLC Bldg B FL3.B-FL3-Door37.Door Status
p558
(lp559
sVMicroWin.PLC Bldg B FL3.B-FL3-Door28.Open Time Alarm Delay
p560
(lp561
sVMicroWin.PLC Bldg A FL2.A-FL2-Door11.Disable Push Button
p562
(lp563
sVMicroWin.PLC Bldg B FL3.B-FL3-Door35.Door Left  Alarm
p564
(lp565
sVMicroWin.PLC Bldg C FL3.C-FL3-Door35.Door Status
p566
(lp567
sVMicroWin.PLC Bldg D7-2 FL2-3.D7-2-FL3-Door12.Output Lock State
p568
(lp569
sVMicroWin.PLC Bldg C FL3.C-FL3-Door28.Door Status
p570
(lp571
sVMicroWin.PLC Bldg A FL2.A-FL2-Door12.Open Time Alarm Delay
p572
(lp573
sVMicroWin.PLC Bldg D7-2 FL2-3.D7-2-FL3-Door8.Command Door Unlock
p574
(lp575
sVMicroWin.PLC Bldg D7-2 FL2-3.D7-2-FL2-Door3.Output Lock State
p576
(lp577
sVMicroWin.PLC Bldg C FL2.C-FL2-Door13.Disable Push Button
p578
(lp579
sVMicroWin.PLC Bldg A FL3.A-FL3-Door38.Force Door Alarm
p580
(lp581
sVMicroWin.PLC Bldg B FL2.B-FL2-Door08.Open Time Alarm Delay
p582
(lp583
sVMicroWin.PLC Bldg B FL3.B-FL3-Door26.Push Button Status
p584
(lp585
sVMicroWin.PLC Bldg A FL3.A-FL3-Door32.Output Lock State
p586
(lp587
sVMicroWin.PLC Bldg B FL3.B-FL3-Door33.Door Left  Alarm
p588
(lp589
sVMicroWin.PLC Bldg C FL2.C-FL2-Door06.Open Time Alarm Delay
p590
(lp591
sVMicroWin.PLC Bldg B FL2.B-FL2-Door18.Open Time Alarm Delay
p592
(lp593
sVMicroWin.PLC Bldg C FL3.C-FL3-Door39.Command Door Unlock
p594
(lp595
sVMicroWin.PLC Bldg B FL3.B-FL3-Door30.Push Button Status
p596
(lp597
sVMicroWin.PLC Bldg D7-1 FL2-3.D7-1-FL2-Door1.Command Door Unlock
p598
(lp599
sVMicroWin.PLC Bldg C FL2.C-FL2-Door07.Door Left  Alarm
p600
(lp601
sVMicroWin.PLC Bldg C FL2.C-FL2-Door08.Door Left  Alarm
p602
(lp603
sVMicroWin.PLC Bldg A FL3.A-FL3-Door36.Disable Push Button
p604
(lp605
sVMicroWin.PLC Bldg C FL3.C-FL3-Door38.Door Left  Alarm
p606
(lp607
sVMicroWin.PLC Bldg C FL2.C-FL2-Door07.Disable Push Button
p608
(lp609
sVMicroWin.PLC Bldg A FL2.PLC-Slave Addr3-Online-Status
p610
(lp611
sVMicroWin.PLC Bldg B FL2.B-FL2-Door16.Output Lock State
p612
(lp613
sVMicroWin.PLC Bldg B FL3.B-FL3-Door24.Push Button Status
p614
(lp615
sVMicroWin.PLC Bldg D7-1 FL2-3.D7-1-FL3-Door7.Open Time Alarm Delay
p616
(lp617
sVMicroWin.PLC Bldg A FL2.PLC-Slave Addr5-Online-Status
p618
(lp619
sVMicroWin.PLC Bldg C FL2.C-FL2-Door19.Push Button Status
p620
(lp621
sVMicroWin.PLC Bldg A FL3.A-FL3-Door34.Output Lock State
p622
(lp623
sVMicroWin.PLC Bldg C FL2.C-FL2-Door01.Door Left  Alarm
p624
(lp625
sVMicroWin.PLC Bldg C FL3.C-FL3-Door28.Push Button Status
p626
(lp627
sVMicroWin.PLC Bldg B FL2.B-FL2-Door05.Force Door Alarm
p628
(lp629
sVMicroWin.PLC Bldg B FL3.B-FL3-Door39.Push Button Status
p630
(lp631
sVMicroWin.PLC Bldg D7-2 FL2-3.D7-2-FL2-Door4.Command Door Unlock
p632
(lp633
sVMicroWin.PLC Bldg B FL3.B-FL3-Door33.Push Button Status
p634
(lp635
sVMicroWin.PLC Bldg C FL2.C-FL2-Door15.Door Status
p636
(lp637
sVMicroWin.PLC Bldg A FL2.A-FL2-Door09.Force Door Alarm
p638
(lp639
sVMicroWin.PLC Bldg B FL3.B-FL3-Door26.Output Lock State
p640
(lp641
sVMicroWin.PLC Bldg A FL2.A-FL2-Door19.Disable Push Button
p642
(lp643
sVMicroWin.PLC Bldg D7-1 FL2-3.D7-1-FL2-Door4.Door Status
p644
(lp645
sVMicroWin.PLC Bldg A FL3.PLC1 Dan A FL3 Power Loss
p646
(lp647
sVMicroWin.PLC Bldg D7-1 FL2-3.D7-1-FL3-Door11.Output Lock State
p648
(lp649
sVMicroWin.PLC Bldg A FL3.A-FL3-Door32.Disable Push Button
p650
(lp651
sVMicroWin.PLC Bldg A FL3.A-FL3-Door27.Door Left  Alarm
p652
(lp653
sVMicroWin.PLC Bldg A FL3.A-FL3-Door35.Push Button Status
p654
(lp655
sVMicroWin.PLC Bldg C FL2.C-FL2-Door14.Door Left  Alarm
p656
(lp657
sVMicroWin.PLC Bldg D7-2 FL2-3.D7-2-FL3-Door11.Door Left  Alarm
p658
(lp659
sVMicroWin.PLC Bldg C FL2.PLC-Slave Addr3-Online-Status
p660
(lp661
sVMicroWin.PLC Bldg B FL3.B-FL3-Door29.Command Door Unlock
p662
(lp663
sVMicroWin.PLC Bldg B FL3.B-FL3-Door23.Disable Push Button
p664
(lp665
sVMicroWin.PLC Bldg B FL3.B-FL3-Door35.Door Status
p666
(lp667
sVMicroWin.PLC Bldg B FL2.B-FL2-Door11.Output Lock State
p668
(lp669
sVMicroWin.PLC Bldg C FL3.C-FL3-Door24.Force Door Alarm
p670
(lp671
sVMicroWin.PLC Bldg A FL3.A-FL3-Door40.Push Button Status
p672
(lp673
sVMicroWin.PLC Bldg B FL3.B-FL3-Door28.Door Status
p674
(lp675
sVMicroWin.PLC Bldg A FL3.A-FL3-Door27.Push Button Status
p676
(lp677
sVMicroWin.PLC Bldg C FL2.C-FL2-Door12.Door Left  Alarm
p678
(lp679
sVMicroWin.PLC Bldg A FL2.A-FL2-Door12.Command Door Unlock
p680
(lp681
sVMicroWin.PLC Bldg A FL2.A-FL2-Door07.Door Left  Alarm
p682
(lp683
sVMicroWin.PLC Bldg A FL3.A-FL3-Door24.Open Time Alarm Delay
p684
(lp685
sVMicroWin.PLC Bldg B FL3.PLC1 Dan B FL3 Power Loss
p686
(lp687
sVMicroWin.PLC Bldg D7-2 FL2-3.D7-2-FL3-Door9.Disable Push Button
p688
(lp689
sVMicroWin.PLC Bldg B FL3.B-FL3-Door27.Output Lock State
p690
(lp691
sVMicroWin.PLC Bldg C FL2.C-FL2-Door17.Door Status
p692
(lp693
sVMicroWin.PLC Bldg C FL3.C-FL3-Door26.Door Status
p694
(lp695
sVMicroWin.PLC Bldg A FL2.A-FL2-Door19.Output Lock State
p696
(lp697
sVMicroWin.PLC Bldg B FL2.B-FL2-Door04.Push Button Status
p698
(lp699
sVMicroWin.PLC Bldg C FL2.C-FL2-Door08.Door Status
p700
(lp701
sVMicroWin.PLC Bldg C FL2.C-FL2-Door06.Door Left  Alarm
p702
(lp703
sVMicroWin.PLC Bldg A FL2.A-FL2-Door15.Push Button Status
p704
(lp705
sVMicroWin.PLC Bldg C FL2.C-FL2-Door18.Open Time Alarm Delay
p706
(lp707
sVMicroWin.PLC Bldg B FL2.PLC3 Dan B FL2 Power Loss
p708
(lp709
sVMicroWin.PLC Bldg B FL3.B-FL3-Door31.Push Button Status
p710
(lp711
sVMicroWin.PLC Bldg B FL3.B-FL3-Door21.Output Lock State
p712
(lp713
sVMicroWin.PLC Bldg C FL3.C-FL3-Door37.Force Door Alarm
p714
(lp715
sVMicroWin.PLC Bldg C FL3.C-FL3-Door38.Force Door Alarm
p716
(lp717
sVMicroWin.PLC Bldg B FL2.B-FL2-Door12.Door Status
p718
(lp719
sVMicroWin.PLC Bldg B FL3.B-FL3-Door40.Push Button Status
p720
(lp721
sVMicroWin.PLC Bldg C FL2.C-FL2-Door05.Open Time Alarm Delay
p722
(lp723
sVMicroWin.PLC Bldg C FL3.C-FL3-Door37.Push Button Status
p724
(lp725
sVMicroWin.PLC Bldg A FL2.A-FL2-Door15.Command Door Unlock
p726
(lp727
sVMicroWin.PLC Bldg A FL2.A-FL2-Door15.Disable Push Button
p728
(lp729
sVMicroWin.PLC Bldg A FL2.A-FL2-Door08.Open Time Alarm Delay
p730
(lp731
sVMicroWin.PLC Bldg A FL3.A-FL3-Door34.Door Left  Alarm
p732
(lp733
sVMicroWin.PLC Bldg C FL2.C-FL2-Door16.Disable Push Button
p734
(lp735
sVMicroWin.PLC Bldg B FL3.B-FL3-Door22.Open Time Alarm Delay
p736
(lp737
sVMicroWin.PLC Bldg C FL3.C-FL3-Door29.Push Button Status
p738
(lp739
sVMicroWin.PLC Bldg C FL3.C-FL3-Door27.Disable Push Button
p740
(lp741
sVMicroWin.PLC Bldg D7-2 FL2-3.D7-2-FL2-Door6.Output Lock State
p742
(lp743
sVMicroWin.PLC Bldg A FL3.A-FL3-Door37.Push Button Status
p744
(lp745
sVMicroWin.PLC Bldg B FL3.B-FL3-Door32.Push Button Status
p746
(lp747
sVMicroWin.PLC Bldg A FL3.A-FL3-Door34.Force Door Alarm
p748
(lp749
sVMicroWin.PLC Bldg A FL3.A-FL3-Door38.Open Time Alarm Delay
p750
(lp751
sVMicroWin.PLC Bldg A FL2.A-FL2-Door18.Disable Push Button
p752
(lp753
sVMicroWin.PLC Bldg A FL3.A-FL3-Door29.Command Door Unlock
p754
(lp755
sVMicroWin.PLC Bldg C FL3.C-FL3-Door28.Door Left  Alarm
p756
(lp757
sVMicroWin.PLC Bldg B FL3.B-FL3-Door33.Open Time Alarm Delay
p758
(lp759
sVMicroWin.PLC Bldg B FL2.B-FL2-Door16.Command Door Unlock
p760
(lp761
sVMicroWin.PLC Bldg A FL2.A-FL2-Door19.Force Door Alarm
p762
(lp763
sVMicroWin.PLC Bldg C FL2.PLC3 Dan C FL2 Power Loss
p764
(lp765
sVMicroWin.PLC Bldg C FL3.C-FL3-Door23.Disable Push Button
p766
(lp767
sVMicroWin.PLC Bldg A FL3.A-FL3-Door33.Push Button Status
p768
(lp769
sVMicroWin.PLC Bldg C FL3.C-FL3-Door30.Door Left  Alarm
p770
(lp771
sVMicroWin.PLC Bldg B FL2.B-FL2-Door09.Force Door Alarm
p772
(lp773
sVMicroWin.PLC Bldg B FL2.B-FL2-Door09.Command Door Unlock
p774
(lp775
sVMicroWin.PLC Bldg A FL2.A-FL2-Door08.Door Status
p776
(lp777
sVMicroWin.PLC Bldg D7-2 FL2-3.D7-2-FL3-Door9.Open Time Alarm Delay
p778
(lp779
sVMicroWin.PLC Bldg B FL2.B-FL2-Door12.Push Button Status
p780
(lp781
sVMicroWin.PLC Bldg B FL3.B-FL3-Door26.Open Time Alarm Delay
p782
(lp783
sVMicroWin.PLC Bldg A FL2.A-FL2-Door18.Open Time Alarm Delay
p784
(lp785
sVMicroWin.PLC Bldg C FL2.C-FL2-Door14.Door Status
p786
(lp787
sVMicroWin.PLC Bldg C FL3.PLC5 Dan C FL3 Power Loss
p788
(lp789
sVMicroWin.PLC Bldg C FL3.C-FL3-Door39.Force Door Alarm
p790
(lp791
sVMicroWin.PLC Bldg A FL3.A-FL3-Door32.Door Left  Alarm
p792
(lp793
sVMicroWin.PLC Bldg A FL2.A-FL2-Door15.Force Door Alarm
p794
(lp795
sVMicroWin.PLC Bldg B FL3.B-FL3-Door28.Door Left  Alarm
p796
(lp797
sVMicroWin.PLC Bldg B FL2.B-FL2-Door08.Door Left  Alarm
p798
(lp799
sVMicroWin.PLC Bldg D7-1 FL2-3.D7-1-FL3-Door11.Door Status
p800
(lp801
sVMicroWin.PLC Bldg C FL2.PLC-Slave Addr5-Online-Status
p802
(lp803
sVMicroWin.PLC Bldg D7-1 FL2-3.D7-1-FL2-Door1.Open Time Alarm Delay
p804
(lp805
sVMicroWin.PLC Bldg A FL3.A-FL3-Door31.Push Button Status
p806
(lp807
sVMicroWin.PLC Bldg B FL2.B-FL2-Door10.Door Status
p808
(lp809
sVMicroWin.PLC Bldg D7-1 FL2-3.D7-1-FL2-Door4.Disable Push Button
p810
(lp811
sVMicroWin.PLC Bldg D7-1 FL2-3.D7-1-FL2-Door2.Door Status
p812
(lp813
sVMicroWin.PLC Bldg C FL3.C-FL3-Door40.Door Status
p814
(lp815
sVMicroWin.PLC Bldg D7-2 FL2-3.D7-2-FL2-Door1.Open Time Alarm Delay
p816
(lp817
sVMicroWin.PLC Bldg A FL2.A-FL2-Door09.Output Lock State
p818
(lp819
sVMicroWin.PLC Bldg D7-2 FL2-3.D7-2-FL3-Door10.Command Door Unlock
p820
(lp821
sVMicroWin.PLC Bldg C FL3.C-FL3-Door38.Open Time Alarm Delay
p822
(lp823
sVMicroWin.PLC Bldg D7-1 FL2-3.D7-1-FL3-Door8.Output Lock State
p824
(lp825
sVMicroWin.PLC Bldg A FL3.A-FL3-Door33.Output Lock State
p826
(lp827
sVMicroWin.PLC Bldg D7-1 FL2-3.D7-1-FL3-Door7.Door Left  Alarm
p828
(lp829
sVMicroWin.PLC Bldg A FL3.A-FL3-Door31.Disable Push Button
p830
(lp831
sVMicroWin.PLC Bldg C FL3.C-FL3-Door25.Force Door Alarm
p832
(lp833
sVMicroWin.PLC Bldg D7-2 FL2-3.D7-2-FL2-Door2.Output Lock State
p834
(lp835
sVMicroWin.PLC Bldg D7-1 FL2-3.D7-1-FL2-Door1.Disable Push Button
p836
(lp837
sVMicroWin.PLC Bldg A FL2.A-FL2-Door16.Disable Push Button
p838
(lp839
sVMicroWin.PLC Bldg B FL2.B-FL2-Door15.Force Door Alarm
p840
(lp841
sVMicroWin.PLC Bldg A FL2.A-FL2-Door14.Door Status
p842
(lp843
sVMicroWin.PLC Bldg B FL2.B-FL2-Door19.Disable Push Button
p844
(lp845
sVMicroWin.PLC Bldg D7-1 FL2-3.D7-1-FL3-Door8.Open Time Alarm Delay
p846
(lp847
sVMicroWin.PLC Bldg A FL3.A-FL3-Door33.Door Status
p848
(lp849
sVMicroWin.PLC Bldg B FL3.B-FL3-Door27.Door Left  Alarm
p850
(lp851
sVMicroWin.PLC Bldg A FL2.A-FL2-Door02.Open Time Alarm Delay
p852
(lp853
sVMicroWin.PLC Bldg A FL2.A-FL2-Door05.Force Door Alarm
p854
(lp855
sVMicroWin.PLC Bldg A FL2.A-FL2-Door12.Output Lock State
p856
(lp857
sVMicroWin.PLC Bldg B FL3.B-FL3-Door21.Open Time Alarm Delay
p858
(lp859
sVMicroWin.PLC Bldg A FL2.A-FL2-Door18.Door Left  Alarm
p860
(lp861
sVMicroWin.PLC Bldg C FL2.C-FL2-Door01.Door Status
p862
(lp863
sVMicroWin.PLC Bldg A FL2.PLC3 Dan A FL2 Power Loss
p864
(lp865
sVMicroWin.PLC Bldg D7-2 FL2-3.D7-2-FL2-Door3.Push Button Status
p866
(lp867
sVMicroWin.PLC Bldg A FL2.A-FL2-Door13.Open Time Alarm Delay
p868
(lp869
sVMicroWin.PLC Bldg D7-2 FL2-3.D7-2-FL3-Door7.Open Time Alarm Delay
p870
(lp871
sVMicroWin.PLC Bldg D7-1 FL2-3.D7-1-FL3-Door10.Output Lock State
p872
(lp873
sVMicroWin.PLC Bldg C FL2.C-FL2-Door06.Door Status
p874
(lp875
sVMicroWin.PLC Bldg B FL3.B-FL3-Door40.Force Door Alarm
p876
(lp877
sVMicroWin.PLC Bldg D7-2 FL2-3.D7-2-FL3-Door11.Command Door Unlock
p878
(lp879
sVMicroWin.PLC Bldg B FL3.B-FL3-Door36.Open Time Alarm Delay
p880
(lp881
sVMicroWin.PLC Bldg A FL2.A-FL2-Door11.Door Left  Alarm
p882
(lp883
sVMicroWin.PLC Bldg C FL2.C-FL2-Door05.Push Button Status
p884
(lp885
sVMicroWin.PLC Bldg C FL3.C-FL3-Door30.Disable Push Button
p886
(lp887
sVMicroWin.PLC Bldg A FL3.PLC-Slave Addr3-Online-Status
p888
(lp889
sVMicroWin.PLC Bldg D7-1 FL2-3.D7-1-FL2-Door5.Door Status
p890
(lp891
sVMicroWin.PLC Bldg B FL3.B-FL3-Door34.Output Lock State
p892
(lp893
sVMicroWin.PLC Bldg C FL3.C-FL3-Door34.Disable Push Button
p894
(lp895
sVMicroWin.PLC Bldg B FL3.B-FL3-Door23.Door Status
p896
(lp897
sVMicroWin.PLC Bldg A FL2.A-FL2-Door01.Door Left  Alarm
p898
(lp899
sVMicroWin.PLC Bldg B FL2.B-FL2-Door20.Door Status
p900
(lp901
sVMicroWin.PLC Bldg B FL2.B-FL2-Door10.Push Button Status
p902
(lp903
sVMicroWin.PLC Bldg C FL2.C-FL2-Door16.Command Door Unlock
p904
(lp905
sVMicroWin.PLC Bldg C FL2.C-FL2-Door17.Open Time Alarm Delay
p906
(lp907
sVMicroWin.PLC Bldg D7-1 FL2-3.D7-1-FL3-Door8.Force Door Alarm
p908
(lp909
sVMicroWin.PLC Bldg D7-2 FL2-3.D7-2-FL3-Door11.Force Door Alarm
p910
(lp911
sVMicroWin.PLC Bldg B FL2.B-FL2-Door10.Force Door Alarm
p912
(lp913
sVMicroWin.PLC Bldg A FL3.A-FL3-Door26.Door Left  Alarm
p914
(lp915
sVMicroWin.PLC Bldg C FL2.C-FL2-Door02.Door Left  Alarm
p916
(lp917
sVMicroWin.PLC Bldg C FL3.C-FL3-Door30.Command Door Unlock
p918
(lp919
sVMicroWin.PLC Bldg A FL2.A-FL2-Door18.Command Door Unlock
p920
(lp921
sVMicroWin.PLC Bldg B FL3.B-FL3-Door39.Door Left  Alarm
p922
(lp923
sVMicroWin.PLC Bldg A FL2.A-FL2-Door15.Open Time Alarm Delay
p924
(lp925
sVMicroWin.PLC Bldg A FL2.A-FL2-Door03.Disable Push Button
p926
(lp927
sVMicroWin.PLC Bldg B FL2.B-FL2-Door01.Output Lock State
p928
(lp929
sVMicroWin.PLC Bldg B FL3.B-FL3-Door38.Command Door Unlock
p930
(lp931
sVMicroWin.PLC Bldg A FL2.A-FL2-Door01.Door Status
p932
(lp933
sVMicroWin.PLC Bldg B FL2.B-FL2-Door07.Door Left  Alarm
p934
(lp935
sVMicroWin.PLC Bldg D7-2 FL2-3.D7-2-FL3-Door10.Push Button Status
p936
(lp937
sVMicroWin.PLC Bldg A FL3.A-FL3-Door28.Push Button Status
p938
(lp939
sVMicroWin.PLC Bldg B FL2.B-FL2-Door05.Output Lock State
p940
(lp941
sVMicroWin.PLC Bldg A FL3.A-FL3-Door33.Command Door Unlock
p942
(lp943
sVMicroWin.PLC Bldg A FL3.A-FL3-Door31.Door Status
p944
(lp945
sVMicroWin.PLC Bldg D7-2 FL2-3.D7-2-FL2-Door3.Door Left  Alarm
p946
(lp947
sVMicroWin.PLC Bldg A FL3.A-FL3-Door36.Door Status
p948
(lp949
sVMicroWin.PLC Bldg D7-1 FL2-3.D7-1-FL2-Door6.Door Left  Alarm
p950
(lp951
sVMicroWin.PLC Bldg B FL2.B-FL2-Door13.Open Time Alarm Delay
p952
(lp953
sVMicroWin.PLC Bldg B FL2.B-FL2-Door02.Door Status
p954
(lp955
sVMicroWin.PLC Bldg A FL2.A-FL2-Door06.Force Door Alarm
p956
(lp957
sVMicroWin.PLC Bldg B FL2.B-FL2-Door01.Door Left  Alarm
p958
(lp959
sVMicroWin.PLC Bldg A FL3.A-FL3-Door37.Force Door Alarm
p960
(lp961
sVMicroWin.PLC Bldg C FL3.C-FL3-Door23.Force Door Alarm
p962
(lp963
sVMicroWin.PLC Bldg D7-2 FL2-3.D7-2-FL3-Door10.Door Left  Alarm
p964
(lp965
sVMicroWin.PLC Bldg A FL3.A-FL3-Door23.Output Lock State
p966
(lp967
sVMicroWin.PLC Bldg A FL3.A-FL3-Door29.Door Left  Alarm
p968
(lp969
sVMicroWin.PLC Bldg B FL3.B-FL3-Door30.Door Status
p970
(lp971
sVMicroWin.PLC Bldg D7-2 FL2-3.D7-2-FL2-Door6.Push Button Status
p972
(lp973
sVMicroWin.PLC Bldg A FL2.A-FL2-Door17.Force Door Alarm
p974
(lp975
sVMicroWin.PLC Bldg A FL3.A-FL3-Door40.Open Time Alarm Delay
p976
(lp977
sVMicroWin.PLC Bldg B FL3.PLC-Slave Addr3-Online-Status
p978
(lp979
sVMicroWin.PLC Bldg A FL2.A-FL2-Door17.Open Time Alarm Delay
p980
(lp981
sVMicroWin.PLC Bldg B FL3.B-FL3-Door36.Force Door Alarm
p982
(lp983
sVMicroWin.PLC Bldg D7-1 FL2-3.D7-1-FL3-Door11.Door Left  Alarm
p984
(lp985
sVMicroWin.PLC Bldg C FL3.C-FL3-Door26.Push Button Status
p986
(lp987
sVMicroWin.PLC Bldg A FL3.A-FL3-Door25.Output Lock State
p988
(lp989
sVMicroWin.PLC Bldg C FL3.C-FL3-Door33.Output Lock State
p990
(lp991
sVMicroWin.PLC Bldg A FL2.A-FL2-Door07.Open Time Alarm Delay
p992
(lp993
sVMicroWin.PLC Bldg A FL3.A-FL3-Door39.Force Door Alarm
p994
(lp995
sVMicroWin.PLC Bldg A FL3.PLC-Slave Addr4-Online-Status
p996
(lp997
sVMicroWin.PLC Bldg B FL2.B-FL2-Door20.Force Door Alarm
p998
(lp999
sVMicroWin.PLC Bldg B FL2.B-FL2-Door13.Push Button Status
p1000
(lp1001
sVMicroWin.PLC Bldg C FL2.C-FL2-Door19.Disable Push Button
p1002
(lp1003
sVMicroWin.PLC Bldg B FL3.B-FL3-Door31.Disable Push Button
p1004
(lp1005
sVMicroWin.PLC Bldg B FL3.B-FL3-Door35.Output Lock State
p1006
(lp1007
sVMicroWin.PLC Bldg C FL3.C-FL3-Door21.Push Button Status
p1008
(lp1009
sVMicroWin.PLC Bldg A FL3.A-FL3-Door26.Push Button Status
p1010
(lp1011
sVMicroWin.PLC Bldg B FL2.B-FL2-Door14.Command Door Unlock
p1012
(lp1013
sVMicroWin.PLC Bldg D7-2 FL2-3.D7-2-FL2-Door1.Door Left  Alarm
p1014
(lp1015
sVMicroWin.PLC Bldg A FL3.A-FL3-Door26.Open Time Alarm Delay
p1016
(lp1017
sVMicroWin.PLC Bldg B FL2.B-FL2-Door01.Door Status
p1018
(lp1019
sVMicroWin.PLC Bldg B FL3.B-FL3-Door28.Disable Push Button
p1020
(lp1021
sVMicroWin.PLC Bldg D7-2 FL2-3.D7-2-FL2-Door5.Door Status
p1022
(lp1023
sVMicroWin.PLC Bldg C FL3.C-FL3-Door27.Push Button Status
p1024
(lp1025
sVMicroWin.PLC Bldg C FL2.C-FL2-Door06.Force Door Alarm
p1026
(lp1027
sVMicroWin.PLC Bldg C FL3.C-FL3-Door21.Open Time Alarm Delay
p1028
(lp1029
sVMicroWin.PLC Bldg C FL3.C-FL3-Door36.Output Lock State
p1030
(lp1031
sVMicroWin.PLC Bldg A FL2.A-FL2-Door01.Open Time Alarm Delay
p1032
(lp1033
sVMicroWin.PLC Bldg B FL3.B-FL3-Door34.Disable Push Button
p1034
(lp1035
sVMicroWin.PLC Bldg A FL3.A-FL3-Door37.Open Time Alarm Delay
p1036
(lp1037
sVMicroWin.PLC Bldg C FL3.C-FL3-Door31.Door Left  Alarm
p1038
(lp1039
sVMicroWin.PLC Bldg C FL3.C-FL3-Door23.Output Lock State
p1040
(lp1041
sVMicroWin.PLC Bldg D7-1 FL2-3.D7-1-FL2-Door4.Force Door Alarm
p1042
(lp1043
sVMicroWin.PLC Bldg C FL3.C-FL3-Door24.Disable Push Button
p1044
(lp1045
sVMicroWin.PLC Bldg B FL2.PLC1 Dan B FL2 Power Loss
p1046
(lp1047
sVMicroWin.PLC Bldg B FL2.B-FL2-Door03.Open Time Alarm Delay
p1048
(lp1049
sVMicroWin.PLC Bldg C FL3.C-FL3-Door39.Output Lock State
p1050
(lp1051
sVMicroWin.PLC Bldg A FL2.PLC4 Dan A FL2 Power Loss
p1052
(lp1053
sVMicroWin.PLC Bldg C FL2.PLC5 Dan C FL2 Power Loss
p1054
(lp1055
sVMicroWin.PLC Bldg A FL2.A-FL2-Door13.Command Door Unlock
p1056
(lp1057
sVMicroWin.PLC Bldg B FL3.B-FL3-Door38.Door Left  Alarm
p1058
(lp1059
sVMicroWin.PLC Bldg A FL2.A-FL2-Door10.Force Door Alarm
p1060
(lp1061
sVMicroWin.PLC Bldg A FL3.A-FL3-Door22.Open Time Alarm Delay
p1062
(lp1063
sVMicroWin.PLC Bldg C FL3.C-FL3-Door35.Disable Push Button
p1064
(lp1065
sVMicroWin.PLC Bldg C FL2.C-FL2-Door19.Command Door Unlock
p1066
(lp1067
sVMicroWin.PLC Bldg A FL2.A-FL2-Door09.Disable Push Button
p1068
(lp1069
sVMicroWin.PLC Bldg A FL3.A-FL3-Door33.Force Door Alarm
p1070
(lp1071
sVMicroWin.PLC Bldg A FL2.A-FL2-Door10.Open Time Alarm Delay
p1072
(lp1073
sVMicroWin.PLC Bldg B FL3.B-FL3-Door29.Door Status
p1074
(lp1075
sVMicroWin.PLC Bldg D7-2 FL2-3.D7-2-FL2-Door4.Output Lock State
p1076
(lp1077
sVMicroWin.PLC Bldg B FL2.PLC-Slave Addr4-Online-Status
p1078
(lp1079
sVMicroWin.PLC Bldg C FL2.C-FL2-Door02.Open Time Alarm Delay
p1080
(lp1081
sVMicroWin.PLC Bldg D7-2 FL2-3.D7-2-FL2-Door3.Door Status
p1082
(lp1083
sVMicroWin.PLC Bldg C FL3.C-FL3-Door28.Force Door Alarm
p1084
(lp1085
sVMicroWin.PLC Bldg A FL2.PLC5 Dan A FL2 Power Loss
p1086
(lp1087
sVMicroWin.PLC Bldg A FL3.PLC-Slave Addr5-Online-Status
p1088
(lp1089
sVMicroWin.PLC Bldg A FL3.A-FL3-Door32.Push Button Status
p1090
(lp1091
sVMicroWin.PLC Bldg A FL3.A-FL3-Door26.Force Door Alarm
p1092
(lp1093
sVMicroWin.PLC Bldg B FL2.PLC5 Dan B FL2 Power Loss
p1094
(lp1095
sVMicroWin.PLC Bldg D7-1 FL2-3.D7-1-FL2-Door2.Door Left  Alarm
p1096
(lp1097
sVMicroWin.PLC Bldg D7-1 FL2-3.D7-1-FL3-Door9.Disable Push Button
p1098
(lp1099
sVMicroWin.PLC Bldg C FL3.C-FL3-Door36.Command Door Unlock
p1100
(lp1101
sVMicroWin.PLC Bldg A FL3.A-FL3-Door24.Push Button Status
p1102
(lp1103
sVMicroWin.PLC Bldg A FL2.A-FL2-Door01.Command Door Unlock
p1104
(lp1105
sVMicroWin.PLC Bldg C FL3.C-FL3-Door32.Door Left  Alarm
p1106
(lp1107
sVMicroWin.PLC Bldg C FL2.C-FL2-Door05.Output Lock State
p1108
(lp1109
sVMicroWin.PLC Bldg B FL2.B-FL2-Door07.Output Lock State
p1110
(lp1111
sVMicroWin.PLC Bldg D7-2 FL2-3.D7-2-FL2-Door6.Door Status
p1112
(lp1113
sVMicroWin.PLC Bldg D7-2 FL2-3.D7-2-FL3-Door12.Door Status
p1114
(lp1115
sVMicroWin.PLC Bldg A FL2.A-FL2-Door06.Door Left  Alarm
p1116
(lp1117
sVMicroWin.PLC Bldg A FL2.A-FL2-Door20.Door Status
p1118
(lp1119
sVMicroWin.PLC Bldg B FL3.B-FL3-Door40.Output Lock State
p1120
(lp1121
sVMicroWin.PLC Bldg A FL2.A-FL2-Door09.Push Button Status
p1122
(lp1123
sVMicroWin.PLC Bldg A FL2.A-FL2-Door17.Disable Push Button
p1124
(lp1125
sVMicroWin.PLC Bldg A FL3.A-FL3-Door38.Push Button Status
p1126
(lp1127
sVMicroWin.PLC Bldg C FL2.C-FL2-Door10.Push Button Status
p1128
(lp1129
sVMicroWin.PLC Bldg A FL3.A-FL3-Door37.Door Status
p1130
(lp1131
sVMicroWin.PLC Bldg B FL3.B-FL3-Door25.Disable Push Button
p1132
(lp1133
sVMicroWin.PLC Bldg D7-2 FL2-3.D7-2-FL2-Door5.Disable Push Button
p1134
(lp1135
sVMicroWin.PLC Bldg A FL2.A-FL2-Door19.Push Button Status
p1136
(lp1137
sVMicroWin.PLC Bldg A FL2.A-FL2-Door06.Command Door Unlock
p1138
(lp1139
sVMicroWin.PLC Bldg B FL3.B-FL3-Door34.Door Status
p1140
(lp1141
sVMicroWin.PLC Bldg A FL2.A-FL2-Door14.Push Button Status
p1142
(lp1143
sVMicroWin.PLC Bldg B FL3.B-FL3-Door31.Force Door Alarm
p1144
(lp1145
sVMicroWin.PLC Bldg D7-2 FL2-3.PLC1 Dan D2 Power Loss
p1146
(lp1147
sVMicroWin.PLC Bldg B FL2.B-FL2-Door20.Door Left  Alarm
p1148
(lp1149
sVMicroWin.PLC Bldg B FL3.B-FL3-Door24.Force Door Alarm
p1150
(lp1151
sVMicroWin.PLC Bldg B FL3.B-FL3-Door25.Push Button Status
p1152
(lp1153
sVMicroWin.PLC Bldg B FL3.B-FL3-Door24.Door Left  Alarm
p1154
(lp1155
sVMicroWin.PLC Bldg A FL3.A-FL3-Door23.Push Button Status
p1156
(lp1157
sVMicroWin.PLC Bldg B FL2.B-FL2-Door14.Push Button Status
p1158
(lp1159
sVMicroWin.PLC Bldg C FL2.C-FL2-Door15.Open Time Alarm Delay
p1160
(lp1161
sVMicroWin.PLC Bldg C FL3.C-FL3-Door22.Output Lock State
p1162
(lp1163
sVMicroWin.PLC Bldg D7-1 FL2-3.D7-1-FL2-Door3.Push Button Status
p1164
(lp1165
sVMicroWin.PLC Bldg A FL3.A-FL3-Door21.Force Door Alarm
p1166
(lp1167
sVMicroWin.PLC Bldg B FL2.B-FL2-Door13.Output Lock State
p1168
(lp1169
sVMicroWin.PLC Bldg C FL3.C-FL3-Door31.Push Button Status
p1170
(lp1171
sVMicroWin.PLC Bldg D7-1 FL2-3.D7-1-FL3-Door9.Force Door Alarm
p1172
(lp1173
sVMicroWin.PLC Bldg B FL3.B-FL3-Door36.Door Status
p1174
(lp1175
sVMicroWin.PLC Bldg D7-2 FL2-3.D7-2-FL3-Door11.Door Status
p1176
(lp1177
sVMicroWin.PLC Bldg C FL3.C-FL3-Door25.Push Button Status
p1178
(lp1179
sVMicroWin.PLC Bldg B FL2.B-FL2-Door17.Command Door Unlock
p1180
(lp1181
sVMicroWin.PLC Bldg C FL2.C-FL2-Door09.Output Lock State
p1182
(lp1183
sVMicroWin.PLC Bldg A FL3.A-FL3-Door36.Output Lock State
p1184
(lp1185
sVMicroWin.PLC Bldg C FL3.C-FL3-Door35.Open Time Alarm Delay
p1186
(lp1187
sVMicroWin.PLC Bldg A FL3.A-FL3-Door32.Open Time Alarm Delay
p1188
(lp1189
sVMicroWin.PLC Bldg C FL2.C-FL2-Door11.Disable Push Button
p1190
(lp1191
sVMicroWin.PLC Bldg D7-1 FL2-3.D7-1-FL3-Door9.Open Time Alarm Delay
p1192
(lp1193
sVMicroWin.PLC Bldg C FL3.PLC1 Dan C FL3 Power Loss
p1194
(lp1195
sVMicroWin.PLC Bldg C FL2.C-FL2-Door01.Output Lock State
p1196
(lp1197
sVMicroWin.PLC Bldg B FL2.B-FL2-Door10.Door Left  Alarm
p1198
(lp1199
sVMicroWin.PLC Bldg C FL3.C-FL3-Door40.Door Left  Alarm
p1200
(lp1201
sVMicroWin.PLC Bldg A FL3.A-FL3-Door30.Output Lock State
p1202
(lp1203
sVMicroWin.PLC Bldg C FL3.C-FL3-Door29.Door Left  Alarm
p1204
(lp1205
sVMicroWin.PLC Bldg A FL3.A-FL3-Door27.Door Status
p1206
(lp1207
sVMicroWin.PLC Bldg A FL3.A-FL3-Door36.Door Left  Alarm
p1208
(lp1209
sVMicroWin.PLC Bldg A FL2.A-FL2-Door08.Disable Push Button
p1210
(lp1211
sVMicroWin.PLC Bldg A FL3.A-FL3-Door40.Output Lock State
p1212
(lp1213
sVMicroWin.PLC Bldg C FL3.C-FL3-Door23.Door Status
p1214
(lp1215
sVMicroWin.PLC Bldg D7-1 FL2-3.D7-1-FL2-Door5.Command Door Unlock
p1216
(lp1217
sVMicroWin.PLC Bldg A FL2.A-FL2-Door18.Force Door Alarm
p1218
(lp1219
sVMicroWin.PLC Bldg B FL2.B-FL2-Door04.Output Lock State
p1220
(lp1221
sVMicroWin.PLC Bldg A FL2.A-FL2-Door17.Command Door Unlock
p1222
(lp1223
sVMicroWin.PLC Bldg C FL2.C-FL2-Door14.Push Button Status
p1224
(lp1225
sVMicroWin.PLC Bldg D7-2 FL2-3.D7-2-FL3-Door12.Force Door Alarm
p1226
(lp1227
sVMicroWin.PLC Bldg A FL3.A-FL3-Door29.Output Lock State
p1228
(lp1229
sVMicroWin.PLC Bldg B FL3.B-FL3-Door38.Output Lock State
p1230
(lp1231
sVMicroWin.PLC Bldg D7-2 FL2-3.D7-2-FL2-Door1.Command Door Unlock
p1232
(lp1233
sVMicroWin.PLC Bldg C FL3.C-FL3-Door33.Disable Push Button
p1234
(lp1235
sVMicroWin.PLC Bldg C FL2.C-FL2-Door07.Open Time Alarm Delay
p1236
(lp1237
sVMicroWin.PLC Bldg D7-2 FL2-3.D7-2-FL2-Door2.Open Time Alarm Delay
p1238
(lp1239
sVMicroWin.PLC Bldg B FL3.B-FL3-Door30.Open Time Alarm Delay
p1240
(lp1241
sVMicroWin.PLC Bldg A FL3.A-FL3-Door21.Door Status
p1242
(lp1243
sVMicroWin.PLC Bldg C FL2.C-FL2-Door14.Disable Push Button
p1244
(lp1245
sVMicroWin.PLC Bldg B FL2.B-FL2-Door20.Command Door Unlock
p1246
(lp1247
sVMicroWin.PLC Bldg C FL2.C-FL2-Door16.Door Status
p1248
(lp1249
sVMicroWin.PLC Bldg D7-1 FL2-3.D7-1-FL3-Door12.Open Time Alarm Delay
p1250
(lp1251
sVMicroWin.PLC Bldg C FL2.C-FL2-Door05.Force Door Alarm
p1252
(lp1253
sVMicroWin.PLC Bldg A FL3.A-FL3-Door31.Command Door Unlock
p1254
(lp1255
sVMicroWin.PLC Bldg A FL3.A-FL3-Door29.Push Button Status
p1256
(lp1257
sVMicroWin.PLC Bldg D7-2 FL2-3.D7-2-FL2-Door1.Push Button Status
p1258
(lp1259
sVMicroWin.PLC Bldg A FL3.A-FL3-Door29.Open Time Alarm Delay
p1260
(lp1261
sVMicroWin.PLC Bldg A FL2.A-FL2-Door06.Open Time Alarm Delay
p1262
(lp1263
sVMicroWin.PLC Bldg B FL2.B-FL2-Door14.Door Status
p1264
(lp1265
sVMicroWin.PLC Bldg C FL2.C-FL2-Door04.Door Left  Alarm
p1266
(lp1267
sVMicroWin.PLC Bldg B FL2.B-FL2-Door19.Force Door Alarm
p1268
(lp1269
sVMicroWin.PLC Bldg D7-1 FL2-3.D7-1-FL2-Door3.Door Left  Alarm
p1270
(lp1271
sVMicroWin.PLC Bldg A FL2.A-FL2-Door18.Push Button Status
p1272
(lp1273
sVMicroWin.PLC Bldg C FL2.C-FL2-Door13.Door Left  Alarm
p1274
(lp1275
sVMicroWin.PLC Bldg A FL3.A-FL3-Door34.Door Status
p1276
(lp1277
sVMicroWin.PLC Bldg A FL2.A-FL2-Door16.Door Left  Alarm
p1278
(lp1279
sVMicroWin.PLC Bldg D7-2 FL2-3.D7-2-FL2-Door5.Open Time Alarm Delay
p1280
(lp1281
sVMicroWin.PLC Bldg B FL3.B-FL3-Door33.Output Lock State
p1282
(lp1283
sVMicroWin.PLC Bldg A FL2.A-FL2-Door04.Push Button Status
p1284
(lp1285
sVMicroWin.PLC Bldg A FL2.A-FL2-Door10.Output Lock State
p1286
(lp1287
sVMicroWin.PLC Bldg C FL3.C-FL3-Door23.Open Time Alarm Delay
p1288
(lp1289
sVMicroWin.PLC Bldg C FL3.C-FL3-Door21.Force Door Alarm
p1290
(lp1291
sVMicroWin.PLC Bldg A FL2.A-FL2-Door13.Door Status
p1292
(lp1293
sVMicroWin.PLC Bldg D7-2 FL2-3.D7-2-FL3-Door8.Push Button Status
p1294
(lp1295
sVMicroWin.PLC Bldg B FL2.B-FL2-Door11.Door Status
p1296
(lp1297
sVMicroWin.PLC Bldg B FL2.B-FL2-Door11.Disable Push Button
p1298
(lp1299
sVMicroWin.PLC Bldg B FL3.B-FL3-Door27.Command Door Unlock
p1300
(lp1301
sVMicroWin.PLC Bldg D7-1 FL2-3.Panic Alarm D7-1
p1302
(lp1303
sVMicroWin.PLC Bldg C FL2.C-FL2-Door10.Open Time Alarm Delay
p1304
(lp1305
sVMicroWin.PLC Bldg C FL2.C-FL2-Door09.Force Door Alarm
p1306
(lp1307
sVMicroWin.PLC Bldg A FL2.A-FL2-Door06.Output Lock State
p1308
(lp1309
sVMicroWin.PLC Bldg C FL2.C-FL2-Door20.Door Status
p1310
(lp1311
sVMicroWin.PLC Bldg A FL2.A-FL2-Door07.Command Door Unlock
p1312
(lp1313
sVMicroWin.PLC Bldg A FL3.A-FL3-Door31.Output Lock State
p1314
(lp1315
sVMicroWin.PLC Bldg A FL2.PLC1 Dan A FL2 Power Loss
p1316
(lp1317
sVMicroWin.PLC Bldg A FL3.A-FL3-Door28.Open Time Alarm Delay
p1318
(lp1319
sVMicroWin.PLC Bldg B FL3.B-FL3-Door30.Command Door Unlock
p1320
(lp1321
sVMicroWin.PLC Bldg B FL3.B-FL3-Door26.Command Door Unlock
p1322
(lp1323
sVMicroWin.PLC Bldg B FL3.B-FL3-Door24.Command Door Unlock
p1324
(lp1325
sVMicroWin.PLC Bldg D7-1 FL2-3.D7-1-FL3-Door10.Disable Push Button
p1326
(lp1327
sVMicroWin.PLC Bldg D7-2 FL2-3.D7-2-FL3-Door10.Open Time Alarm Delay
p1328
(lp1329
sVMicroWin.PLC Bldg C FL3.C-FL3-Door40.Push Button Status
p1330
(lp1331
sVMicroWin.PLC Bldg C FL2.C-FL2-Door17.Door Left  Alarm
p1332
(lp1333
sVMicroWin.PLC Bldg B FL3.B-FL3-Door32.Command Door Unlock
p1334
(lp1335
sVMicroWin.PLC Bldg A FL2.A-FL2-Door14.Output Lock State
p1336
(lp1337
sVMicroWin.PLC Bldg B FL2.B-FL2-Door17.Output Lock State
p1338
(lp1339
sVMicroWin.PLC Bldg A FL2.A-FL2-Door10.Door Left  Alarm
p1340
(lp1341
sVMicroWin.PLC Bldg A FL3.A-FL3-Door24.Force Door Alarm
p1342
(lp1343
sVMicroWin.PLC Bldg C FL3.C-FL3-Door38.Door Status
p1344
(lp1345
sVMicroWin.PLC Bldg C FL3.C-FL3-Door24.Command Door Unlock
p1346
(lp1347
sVMicroWin.PLC Bldg D7-2 FL2-3.D7-2-FL2-Door1.Disable Push Button
p1348
(lp1349
sVMicroWin.PLC Bldg B FL3.B-FL3-Door37.Command Door Unlock
p1350
(lp1351
sVMicroWin.PLC Bldg A FL2.A-FL2-Door20.Command Door Unlock
p1352
(lp1353
sVMicroWin.PLC Bldg B FL3.B-FL3-Door37.Push Button Status
p1354
(lp1355
sVMicroWin.PLC Bldg A FL2.A-FL2-Door20.Open Time Alarm Delay
p1356
(lp1357
sVMicroWin.PLC Bldg B FL2.B-FL2-Door03.Output Lock State
p1358
(lp1359
sVMicroWin.PLC Bldg C FL3.C-FL3-Door31.Command Door Unlock
p1360
(lp1361
sVMicroWin.PLC Bldg A FL2.A-FL2-Door02.Push Button Status
p1362
(lp1363
sVMicroWin.PLC Bldg B FL3.B-FL3-Door24.Open Time Alarm Delay
p1364
(lp1365
sVMicroWin.PLC Bldg B FL2.B-FL2-Door12.Command Door Unlock
p1366
(lp1367
sVMicroWin.PLC Bldg B FL2.B-FL2-Door04.Force Door Alarm
p1368
(lp1369
sVMicroWin.PLC Bldg D7-2 FL2-3.D7-2-FL2-Door2.Disable Push Button
p1370
(lp1371
sVMicroWin.PLC Bldg C FL3.C-FL3-Door23.Command Door Unlock
p1372
(lp1373
sVMicroWin.PLC Bldg D7-2 FL2-3.D7-2-FL2-Door4.Disable Push Button
p1374
(lp1375
sVMicroWin.PLC Bldg C FL3.C-FL3-Door27.Open Time Alarm Delay
p1376
(lp1377
sVMicroWin.PLC Bldg B FL2.B-FL2-Door15.Push Button Status
p1378
(lp1379
sVMicroWin.PLC Bldg A FL2.A-FL2-Door12.Force Door Alarm
p1380
(lp1381
sVMicroWin.PLC Bldg C FL2.C-FL2-Door07.Command Door Unlock
p1382
(lp1383
sVMicroWin.PLC Bldg A FL2.A-FL2-Door02.Command Door Unlock
p1384
(lp1385
sVMicroWin.PLC Bldg C FL2.C-FL2-Door11.Push Button Status
p1386
(lp1387
sVMicroWin.PLC Bldg A FL2.A-FL2-Door13.Disable Push Button
p1388
(lp1389
sVMicroWin.PLC Bldg D7-1 FL2-3.D7-1-FL2-Door4.Open Time Alarm Delay
p1390
(lp1391
sVMicroWin.PLC Bldg B FL3.B-FL3-Door23.Command Door Unlock
p1392
(lp1393
sVMicroWin.PLC Bldg C FL3.C-FL3-Door35.Push Button Status
p1394
(lp1395
sVMicroWin.PLC Bldg C FL2.C-FL2-Door17.Command Door Unlock
p1396
(lp1397
sVMicroWin.PLC Bldg C FL3.C-FL3-Door32.Force Door Alarm
p1398
(lp1399
sVMicroWin.PLC Bldg C FL2.C-FL2-Door13.Force Door Alarm
p1400
(lp1401
sVMicroWin.PLC Bldg A FL2.A-FL2-Door09.Open Time Alarm Delay
p1402
(lp1403
sVMicroWin.PLC Bldg D7-1 FL2-3.D7-1-FL2-Door2.Command Door Unlock
p1404
(lp1405
sVMicroWin.PLC Bldg A FL3.A-FL3-Door37.Door Left  Alarm
p1406
(lp1407
sVMicroWin.PLC Bldg D7-1 FL2-3.D7-1-FL3-Door8.Command Door Unlock
p1408
(lp1409
sVMicroWin.PLC Bldg C FL3.C-FL3-Door34.Push Button Status
p1410
(lp1411
sVMicroWin.PLC Bldg A FL2.A-FL2-Door05.Push Button Status
p1412
(lp1413
sVMicroWin.PLC Bldg C FL2.C-FL2-Door20.Door Left  Alarm
p1414
(lp1415
sVMicroWin.PLC Bldg B FL2.B-FL2-Door03.Door Status
p1416
(lp1417
sVMicroWin.PLC Bldg C FL2.C-FL2-Door11.Force Door Alarm
p1418
(lp1419
sVMicroWin.PLC Bldg A FL3.A-FL3-Door32.Command Door Unlock
p1420
(lp1421
sVMicroWin.PLC Bldg C FL3.C-FL3-Door33.Push Button Status
p1422
(lp1423
sVMicroWin.PLC Bldg B FL2.B-FL2-Door03.Push Button Status
p1424
(lp1425
sVMicroWin.PLC Bldg B FL3.B-FL3-Door21.Door Left  Alarm
p1426
(lp1427
sVMicroWin.PLC Bldg C FL3.C-FL3-Door24.Output Lock State
p1428
(lp1429
sVMicroWin.PLC Bldg D7-2 FL2-3.D7-2-FL3-Door7.Output Lock State
p1430
(lp1431
sVMicroWin.PLC Bldg C FL2.C-FL2-Door18.Door Left  Alarm
p1432
(lp1433
sVMicroWin.PLC Bldg C FL2.C-FL2-Door07.Output Lock State
p1434
(lp1435
sVMicroWin.PLC Bldg D7-1 FL2-3.D7-1-FL2-Door3.Output Lock State
p1436
(lp1437
sVMicroWin.PLC Bldg B FL3.B-FL3-Door25.Force Door Alarm
p1438
(lp1439
sVMicroWin.PLC Bldg C FL3.C-FL3-Door38.Command Door Unlock
p1440
(lp1441
sVMicroWin.PLC Bldg C FL3.C-FL3-Door31.Open Time Alarm Delay
p1442
(lp1443
sVMicroWin.PLC Bldg C FL2.C-FL2-Door01.Open Time Alarm Delay
p1444
(lp1445
sVMicroWin.PLC Bldg B FL2.B-FL2-Door16.Force Door Alarm
p1446
(lp1447
sVMicroWin.PLC Bldg A FL3.A-FL3-Door31.Door Left  Alarm
p1448
(lp1449
sVMicroWin.PLC Bldg A FL2.A-FL2-Door03.Force Door Alarm
p1450
(lp1451
sVMicroWin.PLC Bldg A FL2.A-FL2-Door02.Force Door Alarm
p1452
(lp1453
sVMicroWin.PLC Bldg D7-2 FL2-3.D7-2-FL3-Door8.Door Status
p1454
(lp1455
sVMicroWin.PLC Bldg C FL3.C-FL3-Door33.Open Time Alarm Delay
p1456
(lp1457
sVMicroWin.PLC Bldg D7-1 FL2-3.D7-1-FL2-Door3.Door Status
p1458
(lp1459
sVMicroWin.PLC Bldg A FL2.A-FL2-Door19.Door Left  Alarm
p1460
(lp1461
sVMicroWin.PLC Bldg C FL3.C-FL3-Door37.Open Time Alarm Delay
p1462
(lp1463
sVMicroWin.PLC Bldg C FL3.C-FL3-Door27.Door Left  Alarm
p1464
(lp1465
sVMicroWin.PLC Bldg A FL3.A-FL3-Door22.Push Button Status
p1466
(lp1467
sVMicroWin.PLC Bldg B FL3.PLC4 Dan B FL3 Power Loss
p1468
(lp1469
sVMicroWin.PLC Bldg C FL2.C-FL2-Door11.Command Door Unlock
p1470
(lp1471
sVMicroWin.PLC Bldg B FL3.B-FL3-Door25.Door Status
p1472
(lp1473
sVMicroWin.PLC Bldg C FL3.C-FL3-Door27.Command Door Unlock
p1474
(lp1475
sVMicroWin.PLC Bldg C FL3.C-FL3-Door27.Force Door Alarm
p1476
(lp1477
sVMicroWin.PLC Bldg D7-1 FL2-3.D7-1-FL2-Door6.Open Time Alarm Delay
p1478
(lp1479
sVMicroWin.PLC Bldg A FL3.A-FL3-Door34.Push Button Status
p1480
(lp1481
sVMicroWin.PLC Bldg B FL2.B-FL2-Door19.Output Lock State
p1482
(lp1483
sVMicroWin.PLC Bldg A FL3.PLC4 Dan A FL3 Power Loss
p1484
(lp1485
sVMicroWin.PLC Bldg D7-2 FL2-3.D7-2-FL3-Door7.Force Door Alarm
p1486
(lp1487
sVMicroWin.PLC Bldg A FL3.A-FL3-Door23.Open Time Alarm Delay
p1488
(lp1489
sVMicroWin.PLC Bldg B FL3.B-FL3-Door26.Door Left  Alarm
p1490
(lp1491
sVMicroWin.PLC Bldg C FL2.C-FL2-Door17.Disable Push Button
p1492
(lp1493
sVMicroWin.PLC Bldg D7-2 FL2-3.D7-2-FL2-Door5.Door Left  Alarm
p1494
(lp1495
sVMicroWin.PLC Bldg A FL2.A-FL2-Door20.Output Lock State
p1496
(lp1497
sVMicroWin.PLC Bldg B FL2.B-FL2-Door12.Disable Push Button
p1498
(lp1499
sVMicroWin.PLC Bldg B FL2.B-FL2-Door16.Door Status
p1500
(lp1501
sVMicroWin.PLC Bldg C FL2.C-FL2-Door06.Command Door Unlock
p1502
(lp1503
sVMicroWin.PLC Bldg A FL2.A-FL2-Door04.Door Status
p1504
(lp1505
sVMicroWin.PLC Bldg C FL3.C-FL3-Door24.Push Button Status
p1506
(lp1507
sVMicroWin.PLC Bldg B FL2.B-FL2-Door07.Push Button Status
p1508
(lp1509
sVMicroWin.PLC Bldg B FL3.B-FL3-Door35.Force Door Alarm
p1510
(lp1511
sVMicroWin.PLC Bldg D7-1 FL2-3.D7-1-FL3-Door10.Command Door Unlock
p1512
(lp1513
sVMicroWin.PLC Bldg B FL2.B-FL2-Door02.Disable Push Button
p1514
(lp1515
sVMicroWin.PLC Bldg B FL3.B-FL3-Door38.Door Status
p1516
(lp1517
sVMicroWin.PLC Bldg B FL2.B-FL2-Door06.Door Status
p1518
(lp1519
sVMicroWin.PLC Bldg A FL3.A-FL3-Door40.Force Door Alarm
p1520
(lp1521
sVMicroWin.PLC Bldg A FL3.A-FL3-Door34.Open Time Alarm Delay
p1522
(lp1523
sVMicroWin.PLC Bldg C FL2.C-FL2-Door07.Push Button Status
p1524
(lp1525
sVMicroWin.PLC Bldg B FL2.B-FL2-Door20.Disable Push Button
p1526
(lp1527
sVMicroWin.PLC Bldg C FL2.C-FL2-Door08.Open Time Alarm Delay
p1528
(lp1529
sVMicroWin.PLC Bldg C FL3.C-FL3-Door31.Output Lock State
p1530
(lp1531
sVMicroWin.PLC Bldg C FL2.C-FL2-Door18.Door Status
p1532
(lp1533
sVMicroWin.PLC Bldg C FL3.C-FL3-Door29.Command Door Unlock
p1534
(lp1535
sVMicroWin.PLC Bldg C FL2.C-FL2-Door05.Door Status
p1536
(lp1537
sVMicroWin.PLC Bldg B FL2.B-FL2-Door15.Door Left  Alarm
p1538
(lp1539
sVMicroWin.PLC Bldg B FL2.B-FL2-Door16.Push Button Status
p1540
(lp1541
sVMicroWin.PLC Bldg C FL3.C-FL3-Door31.Door Status
p1542
(lp1543
sVMicroWin.PLC Bldg B FL3.B-FL3-Door39.Output Lock State
p1544
(lp1545
sVMicroWin.PLC Bldg C FL3.C-FL3-Door29.Disable Push Button
p1546
(lp1547
sVMicroWin.PLC Bldg C FL2.C-FL2-Door03.Output Lock State
p1548
(lp1549
sVMicroWin.PLC Bldg C FL2.C-FL2-Door10.Door Left  Alarm
p1550
(lp1551
sVMicroWin.PLC Bldg C FL2.C-FL2-Door18.Force Door Alarm
p1552
(lp1553
sVMicroWin.PLC Bldg B FL3.B-FL3-Door34.Open Time Alarm Delay
p1554
(lp1555
sVMicroWin.PLC Bldg A FL3.A-FL3-Door38.Door Left  Alarm
p1556
(lp1557
sVMicroWin.PLC Bldg A FL3.A-FL3-Door24.Command Door Unlock
p1558
(lp1559
sVMicroWin.PLC Bldg B FL2.B-FL2-Door03.Force Door Alarm
p1560
(lp1561
sVMicroWin.PLC Bldg B FL2.B-FL2-Door11.Open Time Alarm Delay
p1562
(lp1563
sVMicroWin.PLC Bldg C FL2.PLC1 Dan C FL2 Power Loss
p1564
(lp1565
sVMicroWin.PLC Bldg A FL3.A-FL3-Door37.Output Lock State
p1566
(lp1567
sVMicroWin.PLC Bldg D7-2 FL2-3.D7-2-FL3-Door7.Command Door Unlock
p1568
(lp1569
sVMicroWin.PLC Bldg D7-2 FL2-3.D7-2-FL3-Door12.Door Left  Alarm
p1570
(lp1571
sVMicroWin.PLC Bldg B FL3.B-FL3-Door23.Output Lock State
p1572
(lp1573
sVMicroWin.PLC Bldg A FL3.A-FL3-Door26.Command Door Unlock
p1574
(lp1575
sVMicroWin.PLC Bldg C FL2.C-FL2-Door03.Push Button Status
p1576
(lp1577
sVMicroWin.PLC Bldg C FL2.C-FL2-Door01.Force Door Alarm
p1578
(lp1579
sVMicroWin.PLC Bldg C FL3.C-FL3-Door35.Force Door Alarm
p1580
(lp1581
sVMicroWin.PLC Bldg A FL2.A-FL2-Door02.Door Left  Alarm
p1582
(lp1583
sVMicroWin.PLC Bldg A FL2.A-FL2-Door16.Push Button Status
p1584
(lp1585
sVMicroWin.PLC Bldg B FL2.B-FL2-Door13.Command Door Unlock
p1586
(lp1587
sVMicroWin.PLC Bldg B FL2.B-FL2-Door16.Disable Push Button
p1588
(lp1589
sVMicroWin.PLC Bldg B FL3.B-FL3-Door25.Door Left  Alarm
p1590
(lp1591
sVMicroWin.PLC Bldg A FL3.A-FL3-Door22.Force Door Alarm
p1592
(lp1593
sVMicroWin.PLC Bldg D7-1 FL2-3.D7-1-FL2-Door4.Door Left  Alarm
p1594
(lp1595
sVMicroWin.PLC Bldg C FL2.C-FL2-Door03.Disable Push Button
p1596
(lp1597
sVMicroWin.PLC Bldg C FL2.C-FL2-Door03.Door Status
p1598
(lp1599
sVMicroWin.PLC Bldg B FL3.PLC5 Dan B FL3 Power Loss
p1600
(lp1601
sVMicroWin.PLC Bldg C FL3.C-FL3-Door36.Open Time Alarm Delay
p1602
(lp1603
sVMicroWin.PLC Bldg D7-2 FL2-3.D7-2-FL2-Door6.Disable Push Button
p1604
(lp1605
sVMicroWin.PLC Bldg C FL3.C-FL3-Door38.Output Lock State
p1606
(lp1607
sVMicroWin.PLC Bldg C FL2.C-FL2-Door05.Disable Push Button
p1608
(lp1609
sVMicroWin.PLC Bldg A FL2.A-FL2-Door02.Output Lock State
p1610
(lp1611
sVMicroWin.PLC Bldg D7-1 FL2-3.D7-1-FL3-Door7.Door Status
p1612
(lp1613
sVMicroWin.PLC Bldg B FL3.B-FL3-Door27.Force Door Alarm
p1614
(lp1615
sVMicroWin.PLC Bldg A FL3.A-FL3-Door34.Command Door Unlock
p1616
(lp1617
sVMicroWin.PLC Bldg A FL3.A-FL3-Door22.Command Door Unlock
p1618
(lp1619
sVMicroWin.PLC Bldg C FL3.C-FL3-Door33.Command Door Unlock
p1620
(lp1621
sVMicroWin.PLC Bldg B FL3.B-FL3-Door28.Output Lock State
p1622
(lp1623
sVMicroWin.PLC Bldg A FL3.A-FL3-Door36.Push Button Status
p1624
(lp1625
sVMicroWin.PLC Bldg D7-1 FL2-3.D7-1-FL2-Door5.Output Lock State
p1626
(lp1627
sVMicroWin.PLC Bldg B FL2.B-FL2-Door04.Door Left  Alarm
p1628
(lp1629
sVMicroWin.PLC Bldg A FL3.A-FL3-Door36.Command Door Unlock
p1630
(lp1631
sVMicroWin.PLC Bldg A FL3.A-FL3-Door24.Door Left  Alarm
p1632
(lp1633
sVMicroWin.PLC Bldg C FL3.C-FL3-Door22.Command Door Unlock
p1634
(lp1635
sVMicroWin.PLC Bldg A FL2.A-FL2-Door12.Door Left  Alarm
p1636
(lp1637
sVMicroWin.PLC Bldg C FL2.C-FL2-Door17.Push Button Status
p1638
(lp1639
sVMicroWin.PLC Bldg B FL2.B-FL2-Door13.Door Left  Alarm
p1640
(lp1641
sVMicroWin.PLC Bldg C FL3.C-FL3-Door25.Disable Push Button
p1642
(lp1643
sVMicroWin.PLC Bldg D7-2 FL2-3.PLC-Slave Addr3-Online-Status
p1644
(lp1645
sVMicroWin.PLC Bldg D7-1 FL2-3.D7-1-FL2-Door5.Force Door Alarm
p1646
(lp1647
sVMicroWin.PLC Bldg A FL2.A-FL2-Door10.Disable Push Button
p1648
(lp1649
sVMicroWin.PLC Bldg D7-2 FL2-3.PLC3 Dan D2 Power Loss
p1650
(lp1651
sVMicroWin.PLC Bldg D7-2 FL2-3.D7-2-FL3-Door12.Command Door Unlock
p1652
(lp1653
sVMicroWin.PLC Bldg B FL3.B-FL3-Door26.Disable Push Button
p1654
(lp1655
sVMicroWin.PLC Bldg A FL2.A-FL2-Door20.Push Button Status
p1656
(lp1657
sVMicroWin.PLC Bldg D7-1 FL2-3.D7-1-FL3-Door8.Push Button Status
p1658
(lp1659
sVMicroWin.PLC Bldg A FL3.A-FL3-Door38.Command Door Unlock
p1660
(lp1661
sVMicroWin.PLC Bldg C FL2.C-FL2-Door13.Open Time Alarm Delay
p1662
(lp1663
sVMicroWin.PLC Bldg C FL2.C-FL2-Door20.Push Button Status
p1664
(lp1665
sVMicroWin.PLC Bldg B FL2.B-FL2-Door07.Door Status
p1666
(lp1667
sVMicroWin.PLC Bldg A FL2.A-FL2-Door03.Command Door Unlock
p1668
(lp1669
sVMicroWin.PLC Bldg A FL2.A-FL2-Door15.Door Left  Alarm
p1670
(lp1671
sVMicroWin.PLC Bldg A FL2.A-FL2-Door01.Push Button Status
p1672
(lp1673
sVMicroWin.PLC Bldg A FL2.A-FL2-Door14.Force Door Alarm
p1674
(lp1675
sVMicroWin.PLC Bldg C FL3.C-FL3-Door39.Push Button Status
p1676
(lp1677
sVMicroWin.PLC Bldg A FL2.A-FL2-Door05.Open Time Alarm Delay
p1678
(lp1679
sVMicroWin.PLC Bldg C FL2.C-FL2-Door08.Command Door Unlock
p1680
(lp1681
sVMicroWin.PLC Bldg B FL3.B-FL3-Door29.Force Door Alarm
p1682
(lp1683
sVMicroWin.PLC Bldg A FL3.A-FL3-Door22.Output Lock State
p1684
(lp1685
sVMicroWin.PLC Bldg A FL2.A-FL2-Door02.Disable Push Button
p1686
(lp1687
sVMicroWin.PLC Bldg A FL3.A-FL3-Door28.Output Lock State
p1688
(lp1689
sVMicroWin.PLC Bldg B FL2.B-FL2-Door07.Open Time Alarm Delay
p1690
(lp1691
sVMicroWin.PLC Bldg B FL2.B-FL2-Door17.Door Status
p1692
(lp1693
sVMicroWin.PLC Bldg D7-1 FL2-3.D7-1-FL3-Door7.Output Lock State
p1694
(lp1695
sVMicroWin.PLC Bldg A FL3.A-FL3-Door27.Command Door Unlock
p1696
(lp1697
sVMicroWin.PLC Bldg B FL3.B-FL3-Door31.Open Time Alarm Delay
p1698
(lp1699
sVMicroWin.PLC Bldg B FL2.B-FL2-Door10.Open Time Alarm Delay
p1700
(lp1701
sVMicroWin.PLC Bldg B FL3.PLC-Slave Addr4-Online-Status
p1702
(lp1703
sVMicroWin.PLC Bldg B FL3.B-FL3-Door40.Command Door Unlock
p1704
(lp1705
sVMicroWin.PLC Bldg B FL3.B-FL3-Door30.Force Door Alarm
p1706
(lp1707
sVMicroWin.PLC Bldg C FL3.C-FL3-Door25.Output Lock State
p1708
(lp1709
sVMicroWin.PLC Bldg A FL3.PLC3 Dan A FL3 Power Loss
p1710
(lp1711
sVMicroWin.PLC Bldg A FL2.A-FL2-Door05.Command Door Unlock
p1712
(lp1713
sVMicroWin.PLC Bldg B FL3.B-FL3-Door32.Force Door Alarm
p1714
(lp1715
sVMicroWin.PLC Bldg A FL2.A-FL2-Door16.Open Time Alarm Delay
p1716
(lp1717
sVMicroWin.PLC Bldg B FL2.B-FL2-Door18.Door Status
p1718
(lp1719
sVMicroWin.PLC Bldg B FL3.B-FL3-Door34.Force Door Alarm
p1720
(lp1721
sVMicroWin.PLC Bldg C FL3.C-FL3-Door39.Door Left  Alarm
p1722
(lp1723
sVMicroWin.PLC Bldg B FL3.B-FL3-Door31.Door Status
p1724
(lp1725
sVMicroWin.PLC Bldg A FL2.A-FL2-Door07.Disable Push Button
p1726
(lp1727
sVMicroWin.PLC Bldg B FL3.B-FL3-Door33.Door Status
p1728
(lp1729
sVMicroWin.PLC Bldg C FL2.C-FL2-Door04.Force Door Alarm
p1730
(lp1731
sVMicroWin.PLC Bldg C FL3.C-FL3-Door38.Disable Push Button
p1732
(lp1733
sVMicroWin.PLC Bldg C FL2.C-FL2-Door08.Push Button Status
p1734
(lp1735
sVMicroWin.PLC Bldg B FL3.B-FL3-Door27.Door Status
p1736
(lp1737
sVMicroWin.PLC Bldg D7-1 FL2-3.D7-1-FL2-Door2.Output Lock State
p1738
(lp1739
sVMicroWin.PLC Bldg D7-1 FL2-3.D7-1-FL3-Door8.Door Status
p1740
(lp1741
sVMicroWin.PLC Bldg C FL3.PLC-Slave Addr5-Online-Status
p1742
(lp1743
sVMicroWin.PLC Bldg C FL2.C-FL2-Door03.Command Door Unlock
p1744
(lp1745
sVMicroWin.PLC Bldg C FL2.C-FL2-Door09.Disable Push Button
p1746
(lp1747
sVMicroWin.PLC Bldg A FL3.A-FL3-Door23.Door Left  Alarm
p1748
(lp1749
sVMicroWin.PLC Bldg D7-2 FL2-3.D7-2-FL2-Door2.Door Left  Alarm
p1750
(lp1751
sVMicroWin.PLC Bldg A FL2.A-FL2-Door20.Disable Push Button
p1752
(lp1753
sVMicroWin.PLC Bldg D7-2 FL2-3.D7-2-FL2-Door2.Door Status
p1754
(lp1755
sVMicroWin.PLC Bldg B FL2.B-FL2-Door17.Push Button Status
p1756
(lp1757
sVMicroWin.PLC Bldg B FL2.B-FL2-Door09.Push Button Status
p1758
(lp1759
sVMicroWin.PLC Bldg C FL3.C-FL3-Door35.Command Door Unlock
p1760
(lp1761
sVMicroWin.PLC Bldg C FL2.C-FL2-Door03.Door Left  Alarm
p1762
(lp1763
sVMicroWin.PLC Bldg B FL3.B-FL3-Door39.Disable Push Button
p1764
(lp1765
sVMicroWin.PLC Bldg D7-1 FL2-3.PLC3 Dan D1 Power Loss
p1766
(lp1767
sVMicroWin.PLC Bldg C FL3.C-FL3-Door35.Door Left  Alarm
p1768
(lp1769
sVMicroWin.PLC Bldg B FL3.B-FL3-Door30.Disable Push Button
p1770
(lp1771
sVMicroWin.PLC Bldg B FL3.B-FL3-Door26.Door Status
p1772
(lp1773
sVMicroWin.PLC Bldg C FL3.C-FL3-Door29.Open Time Alarm Delay
p1774
(lp1775
sVMicroWin.PLC Bldg B FL2.B-FL2-Door19.Command Door Unlock
p1776
(lp1777
sVMicroWin.PLC Bldg B FL2.B-FL2-Door19.Push Button Status
p1778
(lp1779
sVMicroWin.PLC Bldg B FL3.B-FL3-Door36.Command Door Unlock
p1780
(lp1781
sVMicroWin.PLC Bldg A FL2.A-FL2-Door11.Force Door Alarm
p1782
(lp1783
sVMicroWin.PLC Bldg A FL2.A-FL2-Door06.Disable Push Button
p1784
(lp1785
sVMicroWin.PLC Bldg D7-2 FL2-3.D7-2-FL2-Door5.Output Lock State
p1786
(lp1787
sVMicroWin.PLC Bldg D7-1 FL2-3.D7-1-FL3-Door8.Disable Push Button
p1788
(lp1789
sVMicroWin.PLC Bldg C FL3.C-FL3-Door32.Disable Push Button
p1790
(lp1791
sVMicroWin.PLC Bldg B FL3.B-FL3-Door25.Command Door Unlock
p1792
(lp1793
sVMicroWin.PLC Bldg A FL2.A-FL2-Door04.Output Lock State
p1794
(lp1795
sVMicroWin.PLC Bldg C FL3.C-FL3-Door38.Push Button Status
p1796
(lp1797
sVMicroWin.PLC Bldg D7-2 FL2-3.D7-2-FL3-Door7.Door Status
p1798
(lp1799
sVMicroWin.PLC Bldg C FL2.C-FL2-Door16.Door Left  Alarm
p1800
(lp1801
sVMicroWin.PLC Bldg A FL3.A-FL3-Door30.Door Left  Alarm
p1802
(lp1803
sVMicroWin.PLC Bldg D7-1 FL2-3.D7-1-FL2-Door4.Push Button Status
p1804
(lp1805
sVMicroWin.PLC Bldg C FL3.C-FL3-Door27.Door Status
p1806
(lp1807
sVMicroWin.PLC Bldg C FL2.C-FL2-Door19.Open Time Alarm Delay
p1808
(lp1809
sVMicroWin.PLC Bldg B FL2.B-FL2-Door05.Command Door Unlock
p1810
(lp1811
sVMicroWin.PLC Bldg B FL2.B-FL2-Door04.Open Time Alarm Delay
p1812
(lp1813
sVMicroWin.PLC Bldg C FL3.C-FL3-Door39.Disable Push Button
p1814
(lp1815
sVMicroWin.PLC Bldg A FL2.A-FL2-Door08.Force Door Alarm
p1816
(lp1817
sVMicroWin.PLC Bldg C FL2.C-FL2-Door13.Door Status
p1818
(lp1819
sVMicroWin.PLC Bldg B FL2.B-FL2-Door18.Disable Push Button
p1820
(lp1821
sVMicroWin.PLC Bldg C FL3.C-FL3-Door21.Door Left  Alarm
p1822
(lp1823
sVMicroWin.PLC Bldg A FL2.A-FL2-Door01.Force Door Alarm
p1824
(lp1825
sVMicroWin.PLC Bldg C FL3.C-FL3-Door29.Door Status
p1826
(lp1827
sVMicroWin.PLC Bldg C FL3.C-FL3-Door27.Output Lock State
p1828
(lp1829
sVMicroWin.PLC Bldg B FL2.B-FL2-Door14.Disable Push Button
p1830
(lp1831
sVMicroWin.PLC Bldg B FL3.B-FL3-Door34.Door Left  Alarm
p1832
(lp1833
sVMicroWin.PLC Bldg B FL3.B-FL3-Door37.Door Left  Alarm
p1834
(lp1835
sVMicroWin.PLC Bldg B FL2.B-FL2-Door14.Force Door Alarm
p1836
(lp1837
sVMicroWin.PLC Bldg B FL3.B-FL3-Door38.Push Button Status
p1838
(lp1839
sVMicroWin.PLC Bldg C FL3.C-FL3-Door39.Open Time Alarm Delay
p1840
(lp1841
sVMicroWin.PLC Bldg B FL2.B-FL2-Door18.Push Button Status
p1842
(lp1843
sVMicroWin.PLC Bldg C FL2.C-FL2-Door09.Open Time Alarm Delay
p1844
(lp1845
sVMicroWin.PLC Bldg B FL2.B-FL2-Door04.Door Status
p1846
(lp1847
sVMicroWin.PLC Bldg B FL2.B-FL2-Door08.Command Door Unlock
p1848
(lp1849
sVMicroWin.PLC Bldg C FL2.C-FL2-Door15.Command Door Unlock
p1850
(lp1851
sVMicroWin.PLC Bldg B FL2.B-FL2-Door16.Open Time Alarm Delay
p1852
(lp1853
sVMicroWin.PLC Bldg A FL2.A-FL2-Door15.Output Lock State
p1854
(lp1855
sVMicroWin.PLC Bldg D7-1 FL2-3.D7-1-FL3-Door10.Open Time Alarm Delay
p1856
(lp1857
sVMicroWin.PLC Bldg B FL2.B-FL2-Door12.Force Door Alarm
p1858
(lp1859
sVMicroWin.PLC Bldg C FL3.C-FL3-Door26.Open Time Alarm Delay
p1860
(lp1861
sVMicroWin.PLC Bldg D7-2 FL2-3.D7-2-FL2-Door4.Open Time Alarm Delay
p1862
(lp1863
sVMicroWin.PLC Bldg B FL2.B-FL2-Door17.Door Left  Alarm
p1864
(lp1865
sVMicroWin.PLC Bldg C FL2.C-FL2-Door09.Door Status
p1866
(lp1867
sVMicroWin.PLC Bldg A FL3.A-FL3-Door27.Disable Push Button
p1868
(lp1869
sVMicroWin.PLC Bldg B FL2.B-FL2-Door03.Door Left  Alarm
p1870
(lp1871
sVMicroWin.PLC Bldg B FL3.B-FL3-Door29.Open Time Alarm Delay
p1872
(lp1873
sVMicroWin.PLC Bldg A FL3.A-FL3-Door30.Open Time Alarm Delay
p1874
(lp1875
sVMicroWin.PLC Bldg A FL2.A-FL2-Door20.Force Door Alarm
p1876
(lp1877
sVMicroWin.PLC Bldg B FL3.B-FL3-Door27.Disable Push Button
p1878
(lp1879
sVMicroWin.PLC Bldg C FL3.C-FL3-Door22.Disable Push Button
p1880
(lp1881
sVMicroWin.PLC Bldg C FL3.C-FL3-Door37.Door Status
p1882
(lp1883
sVMicroWin.PLC Bldg D7-1 FL2-3.D7-1-FL2-Door6.Output Lock State
p1884
(lp1885
sVMicroWin.PLC Bldg D7-2 FL2-3.Panic Alarm D7-2
p1886
(lp1887
sVMicroWin.PLC Bldg A FL3.A-FL3-Door38.Disable Push Button
p1888
(lp1889
sVMicroWin.PLC Bldg A FL3.A-FL3-Door27.Output Lock State
p1890
(lp1891
sVMicroWin.PLC Bldg C FL2.C-FL2-Door04.Disable Push Button
p1892
(lp1893
sVMicroWin.PLC Bldg C FL2.C-FL2-Door02.Push Button Status
p1894
(lp1895
sVMicroWin.PLC Bldg B FL3.B-FL3-Door38.Open Time Alarm Delay
p1896
(lp1897
sVMicroWin.PLC Bldg B FL3.B-FL3-Door31.Door Left  Alarm
p1898
(lp1899
sVMicroWin.PLC Bldg C FL2.C-FL2-Door06.Disable Push Button
p1900
(lp1901
sVMicroWin.PLC Bldg C FL2.C-FL2-Door18.Command Door Unlock
p1902
(lp1903
sVMicroWin.PLC Bldg C FL3.C-FL3-Door34.Force Door Alarm
p1904
(lp1905
sVMicroWin.PLC Bldg B FL2.B-FL2-Door20.Open Time Alarm Delay
p1906
(lp1907
sVMicroWin.PLC Bldg B FL2.PLC4 Dan B FL2 Power Loss
p1908
(lp1909
sVMicroWin.PLC Bldg C FL3.C-FL3-Door36.Force Door Alarm
p1910
(lp1911
sVMicroWin.PLC Bldg A FL2.A-FL2-Door16.Door Status
p1912
(lp1913
sVMicroWin.PLC Bldg A FL3.A-FL3-Door35.Force Door Alarm
p1914
(lp1915
sVMicroWin.PLC Bldg C FL3.C-FL3-Door32.Open Time Alarm Delay
p1916
(lp1917
sVMicroWin.PLC Bldg C FL2.C-FL2-Door15.Output Lock State
p1918
(lp1919
sVMicroWin.PLC Bldg A FL3.A-FL3-Door38.Output Lock State
p1920
(lp1921
sVMicroWin.PLC Bldg D7-1 FL2-3.D7-1-FL3-Door10.Force Door Alarm
p1922
(lp1923
sVMicroWin.PLC Bldg C FL3.C-FL3-Door28.Open Time Alarm Delay
p1924
(lp1925
sVMicroWin.PLC Bldg D7-1 FL2-3.D7-1-FL2-Door6.Force Door Alarm
p1926
(lp1927
sVMicroWin.PLC Bldg D7-1 FL2-3.D7-1-FL2-Door1.Force Door Alarm
p1928
(lp1929
sVMicroWin.PLC Bldg B FL3.B-FL3-Door39.Force Door Alarm
p1930
(lp1931
sVMicroWin.PLC Bldg C FL2.C-FL2-Door20.Force Door Alarm
p1932
(lp1933
sVMicroWin.PLC Bldg D7-1 FL2-3.D7-1-FL2-Door5.Disable Push Button
p1934
(lp1935
sVMicroWin.PLC Bldg C FL3.C-FL3-Door32.Output Lock State
p1936
(lp1937
sVMicroWin.PLC Bldg C FL3.C-FL3-Door34.Output Lock State
p1938
(lp1939
sVMicroWin.PLC Bldg A FL2.A-FL2-Door11.Door Status
p1940
(lp1941
sVMicroWin.PLC Bldg B FL2.B-FL2-Door17.Open Time Alarm Delay
p1942
(lp1943
sVMicroWin.PLC Bldg A FL3.A-FL3-Door24.Door Status
p1944
(lp1945
sVMicroWin.PLC Bldg B FL3.B-FL3-Door28.Command Door Unlock
p1946
(lp1947
sVMicroWin.PLC Bldg C FL2.C-FL2-Door04.Push Button Status
p1948
(lp1949
sVMicroWin.PLC Bldg D7-2 FL2-3.D7-2-FL3-Door9.Push Button Status
p1950
(lp1951
sVMicroWin.PLC Bldg D7-1 FL2-3.D7-1-FL2-Door6.Push Button Status
p1952
(lp1953
sVMicroWin.PLC Bldg A FL3.A-FL3-Door28.Disable Push Button
p1954
(lp1955
sVMicroWin.PLC Bldg C FL3.C-FL3-Door26.Command Door Unlock
p1956
(lp1957
sVMicroWin.PLC Bldg C FL2.C-FL2-Door04.Open Time Alarm Delay
p1958
(lp1959
sVMicroWin.PLC Bldg C FL2.C-FL2-Door02.Door Status
p1960
(lp1961
sVMicroWin.PLC Bldg C FL3.C-FL3-Door25.Door Left  Alarm
p1962
(lp1963
sVMicroWin.PLC Bldg C FL2.C-FL2-Door19.Output Lock State
p1964
(lp1965
sVMicroWin.PLC Bldg A FL2.A-FL2-Door08.Push Button Status
p1966
(lp1967
sVMicroWin.PLC Bldg C FL3.C-FL3-Door37.Disable Push Button
p1968
(lp1969
sVMicroWin.PLC Bldg C FL3.C-FL3-Door30.Push Button Status
p1970
(lp1971
sVMicroWin.PLC Bldg C FL2.C-FL2-Door17.Force Door Alarm
p1972
(lp1973
sVMicroWin.PLC Bldg C FL2.C-FL2-Door14.Command Door Unlock
p1974
(lp1975
sVMicroWin.PLC Bldg C FL2.C-FL2-Door08.Output Lock State
p1976
(lp1977
sVMicroWin.PLC Bldg A FL3.A-FL3-Door22.Door Left  Alarm
p1978
(lp1979
sVMicroWin.PLC Bldg B FL2.B-FL2-Door15.Open Time Alarm Delay
p1980
(lp1981
sVMicroWin.PLC Bldg B FL3.B-FL3-Door34.Push Button Status
p1982
(lp1983
sVMicroWin.PLC Bldg C FL2.C-FL2-Door11.Open Time Alarm Delay
p1984
(lp1985
sVMicroWin.PLC Bldg C FL3.C-FL3-Door30.Force Door Alarm
p1986
(lp1987
sVMicroWin.PLC Bldg C FL2.C-FL2-Door12.Open Time Alarm Delay
p1988
(lp1989
sVMicroWin.PLC Bldg B FL3.B-FL3-Door22.Disable Push Button
p1990
(lp1991
sVMicroWin.PLC Bldg C FL2.PLC4 Dan C FL2 Power Loss
p1992
(lp1993
sVMicroWin.PLC Bldg C FL2.C-FL2-Door15.Disable Push Button
p1994
(lp1995
sVMicroWin.PLC Bldg C FL3.C-FL3-Door21.Door Status
p1996
(lp1997
sVMicroWin.PLC Bldg C FL2.C-FL2-Door20.Output Lock State
p1998
(lp1999
sVMicroWin.PLC Bldg C FL2.C-FL2-Door02.Output Lock State
p2000
(lp2001
sVMicroWin.PLC Bldg D7-1 FL2-3.D7-1-FL3-Door12.Output Lock State
p2002
(lp2003
sVMicroWin.PLC Bldg B FL3.B-FL3-Door39.Door Status
p2004
(lp2005
sVMicroWin.PLC Bldg A FL3.A-FL3-Door35.Open Time Alarm Delay
p2006
(lp2007
sVMicroWin.PLC Bldg C FL3.C-FL3-Door29.Force Door Alarm
p2008
(lp2009
sVMicroWin.PLC Bldg C FL3.C-FL3-Door22.Door Status
p2010
(lp2011
sVMicroWin.PLC Bldg A FL2.A-FL2-Door04.Open Time Alarm Delay
p2012
(lp2013
sVMicroWin.PLC Bldg B FL3.B-FL3-Door21.Push Button Status
p2014
(lp2015
sVMicroWin.PLC Bldg C FL3.C-FL3-Door25.Door Status
p2016
(lp2017
sVMicroWin.PLC Bldg C FL3.C-FL3-Door34.Command Door Unlock
p2018
(lp2019
sVMicroWin.PLC Bldg C FL3.C-FL3-Door26.Disable Push Button
p2020
(lp2021
sVMicroWin.PLC Bldg C FL2.C-FL2-Door12.Command Door Unlock
p2022
(lp2023
sVMicroWin.PLC Bldg A FL2.A-FL2-Door13.Door Left  Alarm
p2024
(lp2025
sVMicroWin.PLC Bldg B FL3.B-FL3-Door25.Open Time Alarm Delay
p2026
(lp2027
sVMicroWin.PLC Bldg C FL2.C-FL2-Door11.Door Left  Alarm
p2028
(lp2029
sVMicroWin.PLC Bldg D7-2 FL2-3.D7-2-FL3-Door9.Force Door Alarm
p2030
(lp2031
sVMicroWin.PLC Bldg D7-2 FL2-3.D7-2-FL2-Door4.Door Left  Alarm
p2032
(lp2033
sVMicroWin.PLC Bldg C FL2.C-FL2-Door19.Force Door Alarm
p2034
(lp2035
sVMicroWin.PLC Bldg B FL3.B-FL3-Door32.Door Status
p2036
(lp2037
sVMicroWin.PLC Bldg A FL3.A-FL3-Door35.Door Status
p2038
(lp2039
sVMicroWin.PLC Bldg C FL2.PLC-Slave Addr4-Online-Status
p2040
(lp2041
sVMicroWin.PLC Bldg D7-2 FL2-3.D7-2-FL2-Door2.Push Button Status
p2042
(lp2043
sVMicroWin.PLC Bldg A FL2.A-FL2-Door19.Command Door Unlock
p2044
(lp2045
sVMicroWin.PLC Bldg A FL3.A-FL3-Door21.Push Button Status
p2046
(lp2047
sVMicroWin.PLC Bldg A FL3.A-FL3-Door23.Door Status
p2048
(lp2049
sVMicroWin.PLC Bldg D7-2 FL2-3.D7-2-FL2-Door3.Disable Push Button
p2050
(lp2051
sVMicroWin.PLC Bldg D7-2 FL2-3.D7-2-FL3-Door9.Door Left  Alarm
p2052
(lp2053
sVMicroWin.PLC Bldg C FL2.C-FL2-Door01.Push Button Status
p2054
(lp2055
sVMicroWin.PLC Bldg C FL3.C-FL3-Door33.Force Door Alarm
p2056
(lp2057
sVMicroWin.PLC Bldg C FL3.C-FL3-Door33.Door Left  Alarm
p2058
(lp2059
sVMicroWin.PLC Bldg B FL3.B-FL3-Door23.Open Time Alarm Delay
p2060
(lp2061
sVMicroWin.PLC Bldg C FL3.C-FL3-Door22.Force Door Alarm
p2062
(lp2063
sVMicroWin.PLC Bldg D7-1 FL2-3.D7-1-FL3-Door11.Force Door Alarm
p2064
(lp2065
sVMicroWin.PLC Bldg B FL2.B-FL2-Door06.Open Time Alarm Delay
p2066
(lp2067
sVMicroWin.PLC Bldg B FL2.B-FL2-Door01.Force Door Alarm
p2068
(lp2069
sVMicroWin.PLC Bldg C FL2.C-FL2-Door02.Command Door Unlock
p2070
(lp2071
sVMicroWin.PLC Bldg C FL2.C-FL2-Door02.Disable Push Button
p2072
(lp2073
sVMicroWin.PLC Bldg C FL3.C-FL3-Door34.Open Time Alarm Delay
p2074
(lp2075
sVMicroWin.PLC Bldg D7-1 FL2-3.D7-1-FL3-Door7.Push Button Status
p2076
(lp2077
sVMicroWin.PLC Bldg D7-1 FL2-3.D7-1-FL2-Door3.Open Time Alarm Delay
p2078
(lp2079
sVMicroWin.PLC Bldg D7-1 FL2-3.D7-1-FL3-Door11.Command Door Unlock
p2080
(lp2081
sVMicroWin.PLC Bldg D7-2 FL2-3.D7-2-FL3-Door10.Door Status
p2082
(lp2083
sVMicroWin.PLC Bldg D7-2 FL2-3.D7-2-FL2-Door3.Command Door Unlock
p2084
(lp2085
sVMicroWin.PLC Bldg A FL2.A-FL2-Door16.Output Lock State
p2086
(lp2087
sVMicroWin.PLC Bldg A FL3.A-FL3-Door34.Disable Push Button
p2088
(lp2089
sVMicroWin.PLC Bldg A FL3.A-FL3-Door22.Door Status
p2090
(lp2091
sVMicroWin.PLC Bldg C FL3.C-FL3-Door36.Disable Push Button
p2092
(lp2093
sVMicroWin.PLC Bldg C FL3.C-FL3-Door32.Push Button Status
p2094
(lp2095
sVMicroWin.PLC Bldg B FL3.B-FL3-Door21.Door Status
p2096
(lp2097
sVMicroWin.PLC Bldg C FL2.C-FL2-Door18.Output Lock State
p2098
(lp2099
sVMicroWin.PLC Bldg D7-2 FL2-3.D7-2-FL2-Door6.Door Left  Alarm
p2100
(lp2101
sVMicroWin.PLC Bldg B FL2.B-FL2-Door18.Door Left  Alarm
p2102
(lp2103
sVMicroWin.PLC Bldg B FL2.B-FL2-Door09.Door Status
p2104
(lp2105
sVMicroWin.PLC Bldg A FL3.A-FL3-Door25.Force Door Alarm
p2106
(lp2107
sVMicroWin.PLC Bldg C FL3.C-FL3-Door37.Command Door Unlock
p2108
(lp2109
sVMicroWin.PLC Bldg C FL3.C-FL3-Door40.Output Lock State
p2110
(lp2111
sVMicroWin.PLC Bldg C FL2.C-FL2-Door09.Door Left  Alarm
p2112
(lp2113
sVMicroWin.PLC Bldg A FL3.A-FL3-Door39.Door Left  Alarm
p2114
(lp2115
sVMicroWin.PLC Bldg A FL3.A-FL3-Door21.Command Door Unlock
p2116
(lp2117
sVMicroWin.PLC Bldg A FL3.A-FL3-Door30.Disable Push Button
p2118
(lp2119
sVMicroWin.PLC Bldg B FL3.B-FL3-Door33.Disable Push Button
p2120
(lp2121
sVMicroWin.PLC Bldg B FL2.B-FL2-Door05.Door Left  Alarm
p2122
(lp2123
sVMicroWin.PLC Bldg A FL2.A-FL2-Door17.Push Button Status
p2124
(lp2125
sVMicroWin.PLC Bldg B FL2.B-FL2-Door18.Output Lock State
p2126
(lp2127
sVMicroWin.PLC Bldg A FL3.A-FL3-Door39.Open Time Alarm Delay
p2128
(lp2129
sVMicroWin.PLC Bldg D7-2 FL2-3.D7-2-FL2-Door4.Force Door Alarm
p2130
(lp2131
sVMicroWin.PLC Bldg C FL2.C-FL2-Door18.Push Button Status
p2132
(lp2133
sVMicroWin.PLC Bldg B FL2.B-FL2-Door12.Output Lock State
p2134
(lp2135
sVMicroWin.PLC Bldg A FL3.A-FL3-Door30.Door Status
p2136
(lp2137
sVMicroWin.PLC Bldg B FL3.B-FL3-Door40.Disable Push Button
p2138
(lp2139
sVMicroWin.PLC Bldg B FL2.B-FL2-Door08.Push Button Status
p2140
(lp2141
sVMicroWin.PLC Bldg A FL2.PLC-Slave Addr4-Online-Status
p2142
(lp2143
sVMicroWin.PLC Bldg C FL3.C-FL3-Door36.Door Status
p2144
(lp2145
sVMicroWin.PLC Bldg C FL2.C-FL2-Door17.Output Lock State
p2146
(lp2147
sVMicroWin.PLC Bldg B FL3.B-FL3-Door29.Output Lock State
p2148
(lp2149
sVMicroWin.PLC Bldg B FL2.B-FL2-Door07.Disable Push Button
p2150
(lp2151
sVMicroWin.PLC Bldg A FL2.A-FL2-Door05.Output Lock State
p2152
(lp2153
sVMicroWin.PLC Bldg A FL2.A-FL2-Door20.Door Left  Alarm
p2154
(lp2155
sVMicroWin.PLC Bldg D7-2 FL2-3.D7-2-FL2-Door6.Command Door Unlock
p2156
(lp2157
sVMicroWin.PLC Bldg B FL2.B-FL2-Door05.Door Status
p2158
(lp2159
sVMicroWin.PLC Bldg B FL3.B-FL3-Door23.Door Left  Alarm
p2160
(lp2161
sVMicroWin.PLC Bldg A FL3.A-FL3-Door28.Command Door Unlock
p2162
(lp2163
sVMicroWin.PLC Bldg A FL2.A-FL2-Door03.Door Left  Alarm
p2164
(lp2165
sVMicroWin.PLC Bldg D7-2 FL2-3.D7-2-FL2-Door1.Force Door Alarm
p2166
(lp2167
sVMicroWin.PLC Bldg A FL2.A-FL2-Door01.Output Lock State
p2168
(lp2169
sVMicroWin.PLC Bldg D7-2 FL2-3.D7-2-FL2-Door5.Push Button Status
p2170
(lp2171
sVMicroWin.PLC Bldg D7-1 FL2-3.D7-1-FL2-Door3.Disable Push Button
p2172
(lp2173
sVMicroWin.PLC Bldg B FL2.B-FL2-Door11.Force Door Alarm
p2174
(lp2175
sVMicroWin.PLC Bldg A FL2.A-FL2-Door06.Door Status
p2176
(lp2177
sVMicroWin.PLC Bldg C FL3.C-FL3-Door24.Door Left  Alarm
p2178
(lp2179
sVMicroWin.PLC Bldg B FL3.B-FL3-Door23.Push Button Status
p2180
(lp2181
sVMicroWin.PLC Bldg B FL2.B-FL2-Door02.Force Door Alarm
p2182
(lp2183
sVMicroWin.PLC Bldg A FL2.A-FL2-Door05.Door Left  Alarm
p2184
(lp2185
sVMicroWin.PLC Bldg C FL3.C-FL3-Door37.Door Left  Alarm
p2186
(lp2187
sVMicroWin.PLC Bldg C FL2.C-FL2-Door12.Disable Push Button
p2188
(lp2189
sVMicroWin.PLC Bldg B FL3.B-FL3-Door35.Command Door Unlock
p2190
(lp2191
sVMicroWin.PLC Bldg D7-1 FL2-3.D7-1-FL3-Door7.Disable Push Button
p2192
(lp2193
sVMicroWin.PLC Bldg D7-2 FL2-3.D7-2-FL2-Door1.Door Status
p2194
(lp2195
sVMicroWin.PLC Bldg A FL3.A-FL3-Door23.Disable Push Button
p2196
(lp2197
sVMicroWin.PLC Bldg A FL3.A-FL3-Door24.Disable Push Button
p2198
(lp2199
sVMicroWin.PLC Bldg B FL3.B-FL3-Door32.Open Time Alarm Delay
p2200
(lp2201
sVMicroWin.PLC Bldg B FL3.B-FL3-Door21.Force Door Alarm
p2202
(lp2203
sVMicroWin.PLC Bldg C FL2.C-FL2-Door13.Push Button Status
p2204
(lp2205
sVMicroWin.PLC Bldg C FL3.C-FL3-Door36.Door Left  Alarm
p2206
(lp2207
sVMicroWin.PLC Bldg D7-1 FL2-3.D7-1-FL2-Door4.Output Lock State
p2208
(lp2209
sVMicroWin.PLC Bldg C FL2.C-FL2-Door01.Disable Push Button
p2210
(lp2211
sVMicroWin.PLC Bldg B FL3.B-FL3-Door29.Door Left  Alarm
p2212
(lp2213
sVMicroWin.PLC Bldg C FL3.C-FL3-Door22.Open Time Alarm Delay
p2214
(lp2215
sVMicroWin.PLC Bldg B FL3.B-FL3-Door26.Force Door Alarm
p2216
(lp2217
sVMicroWin.PLC Bldg B FL2.B-FL2-Door09.Open Time Alarm Delay
p2218
(lp2219
sVMicroWin.PLC Bldg C FL3.C-FL3-Door22.Door Left  Alarm
p2220
(lp2221
sVMicroWin.PLC Bldg A FL2.A-FL2-Door15.Door Status
p2222
(lp2223
sVMicroWin.PLC Bldg D7-2 FL2-3.D7-2-FL3-Door12.Disable Push Button
p2224
(lp2225
sVMicroWin.PLC Bldg B FL2.B-FL2-Door12.Door Left  Alarm
p2226
(lp2227
sVMicroWin.PLC Bldg B FL2.B-FL2-Door09.Door Left  Alarm
p2228
(lp2229
sVMicroWin.PLC Bldg C FL3.C-FL3-Door29.Output Lock State
p2230
(lp2231
sVMicroWin.PLC Bldg A FL2.A-FL2-Door11.Push Button Status
p2232
(lp2233
sVMicroWin.PLC Bldg B FL3.B-FL3-Door30.Door Left  Alarm
p2234
(lp2235
sVMicroWin.PLC Bldg C FL3.C-FL3-Door28.Command Door Unlock
p2236
(lp2237
sVMicroWin.PLC Bldg B FL2.B-FL2-Door09.Disable Push Button
p2238
(lp2239
sVMicroWin.PLC Bldg A FL3.A-FL3-Door29.Force Door Alarm
p2240
(lp2241
sVMicroWin.PLC Bldg A FL2.A-FL2-Door05.Door Status
p2242
(lp2243
sVMicroWin.PLC Bldg A FL3.A-FL3-Door39.Push Button Status
p2244
(lp2245
sVMicroWin.PLC Bldg B FL2.B-FL2-Door14.Door Left  Alarm
p2246
(lp2247
sVMicroWin.PLC Bldg B FL2.B-FL2-Door06.Door Left  Alarm
p2248
(lp2249
sVMicroWin.PLC Bldg C FL3.C-FL3-Door39.Door Status
p2250
(lp2251
sVMicroWin.PLC Bldg B FL3.B-FL3-Door37.Disable Push Button
p2252
(lp2253
sVMicroWin.PLC Bldg B FL2.B-FL2-Door10.Disable Push Button
p2254
(lp2255
sVMicroWin.PLC Bldg A FL3.A-FL3-Door23.Command Door Unlock
p2256
(lp2257
sVMicroWin.PLC Bldg B FL2.B-FL2-Door05.Open Time Alarm Delay
p2258
(lp2259
sVMicroWin.PLC Bldg A FL2.A-FL2-Door19.Door Status
p2260
(lp2261
sVMicroWin.PLC Bldg D7-2 FL2-3.D7-2-FL2-Door3.Open Time Alarm Delay
p2262
(lp2263
sVMicroWin.PLC Bldg D7-1 FL2-3.D7-1-FL3-Door9.Door Left  Alarm
p2264
(lp2265
sVMicroWin.PLC Bldg B FL3.B-FL3-Door22.Door Status
p2266
(lp2267
sVMicroWin.PLC Bldg A FL3.A-FL3-Door39.Command Door Unlock
p2268
(lp2269
sVMicroWin.PLC Bldg C FL2.C-FL2-Door07.Force Door Alarm
p2270
(lp2271
sVMicroWin.PLC Bldg B FL2.PLC-Slave Addr5-Online-Status
p2272
(lp2273
sVMicroWin.PLC Bldg C FL3.C-FL3-Door34.Door Status
p2274
(lp2275
sVMicroWin.PLC Bldg D7-2 FL2-3.D7-2-FL2-Door5.Command Door Unlock
p2276
(lp2277
sVMicroWin.PLC Bldg D7-1 FL2-3.D7-1-FL3-Door12.Force Door Alarm
p2278
(lp2279
sVMicroWin.PLC Bldg C FL3.C-FL3-Door31.Disable Push Button
p2280
(lp2281
sVMicroWin.PLC Bldg B FL2.B-FL2-Door10.Output Lock State
p2282
(lp2283
sVMicroWin.PLC Bldg C FL2.C-FL2-Door15.Push Button Status
p2284
(lp2285
sVMicroWin.PLC Bldg D7-2 FL2-3.D7-2-FL2-Door4.Push Button Status
p2286
(lp2287
sVMicroWin.PLC Bldg B FL3.B-FL3-Door24.Door Status
p2288
(lp2289
sVMicroWin.PLC Bldg C FL2.C-FL2-Door11.Output Lock State
p2290
(lp2291
sVMicroWin.PLC Bldg B FL3.B-FL3-Door36.Door Left  Alarm
p2292
(lp2293
sVMicroWin.PLC Bldg D7-2 FL2-3.D7-2-FL3-Door7.Disable Push Button
p2294
(lp2295
sVMicroWin.PLC Bldg D7-2 FL2-3.D7-2-FL2-Door1.Output Lock State
p2296
(lp2297
sVMicroWin.PLC Bldg A FL3.A-FL3-Door26.Disable Push Button
p2298
(lp2299
sVMicroWin.PLC Bldg C FL2.C-FL2-Door19.Door Left  Alarm
p2300
(lp2301
sVMicroWin.PLC Bldg A FL3.A-FL3-Door32.Force Door Alarm
p2302
(lp2303
sVMicroWin.PLC Bldg C FL2.C-FL2-Door20.Command Door Unlock
p2304
(lp2305
sVMicroWin.PLC Bldg D7-1 FL2-3.D7-1-FL3-Door7.Command Door Unlock
p2306
(lp2307
sVMicroWin.PLC Bldg B FL3.B-FL3-Door35.Push Button Status
p2308
(lp2309
sVMicroWin.PLC Bldg C FL2.C-FL2-Door07.Door Status
p2310
(lp2311
sVMicroWin.PLC Bldg D7-1 FL2-3.D7-1-FL3-Door7.Force Door Alarm
p2312
(lp2313
sVMicroWin.PLC Bldg C FL2.C-FL2-Door20.Disable Push Button
p2314
(lp2315
sVMicroWin.PLC Bldg B FL2.B-FL2-Door04.Command Door Unlock
p2316
(lp2317
sVMicroWin.PLC Bldg B FL3.B-FL3-Door21.Command Door Unlock
p2318
(lp2319
sVMicroWin.PLC Bldg C FL2.C-FL2-Door10.Command Door Unlock
p2320
(lp2321
sVMicroWin.PLC Bldg A FL2.A-FL2-Door03.Output Lock State
p2322
(lp2323
sVMicroWin.PLC Bldg C FL2.C-FL2-Door04.Command Door Unlock
p2324
(lp2325
sVMicroWin.PLC Bldg A FL3.A-FL3-Door21.Open Time Alarm Delay
p2326
(lp2327
sVMicroWin.PLC Bldg B FL2.B-FL2-Door02.Door Left  Alarm
p2328
(lp2329
sVMicroWin.PLC Bldg C FL2.C-FL2-Door12.Push Button Status
p2330
(lp2331
sVMicroWin.PLC Bldg D7-2 FL2-3.D7-2-FL3-Door12.Open Time Alarm Delay
p2332
(lp2333
sVMicroWin.PLC Bldg D7-2 FL2-3.D7-2-FL3-Door8.Door Left  Alarm
p2334
(lp2335
sVMicroWin.PLC Bldg C FL3.C-FL3-Door28.Disable Push Button
p2336
(lp2337
sVMicroWin.PLC Bldg D7-2 FL2-3.D7-2-FL3-Door8.Disable Push Button
p2338
(lp2339
sVMicroWin.PLC Bldg A FL2.A-FL2-Door13.Output Lock State
p2340
(lp2341
sVMicroWin.PLC Bldg B FL2.B-FL2-Door14.Output Lock State
p2342
(lp2343
sVMicroWin.PLC Bldg B FL2.B-FL2-Door05.Disable Push Button
p2344
(lp2345
sVMicroWin.PLC Bldg C FL3.C-FL3-Door25.Open Time Alarm Delay
p2346
(lp2347
sVMicroWin.PLC Bldg C FL3.C-FL3-Door30.Open Time Alarm Delay
p2348
(lp2349
sVMicroWin.PLC Bldg A FL3.A-FL3-Door25.Door Left  Alarm
p2350
(lp2351
sVMicroWin.PLC Bldg D7-1 FL2-3.D7-1-FL2-Door1.Door Left  Alarm
p2352
(lp2353
sVMicroWin.PLC Bldg C FL2.C-FL2-Door16.Open Time Alarm Delay
p2354
(lp2355
sVMicroWin.PLC Bldg D7-1 FL2-3.D7-1-FL2-Door2.Force Door Alarm
p2356
(lp2357
sVMicroWin.PLC Bldg A FL2.A-FL2-Door16.Command Door Unlock
p2358
(lp2359
sVMicroWin.PLC Bldg D7-1 FL2-3.D7-1-FL3-Door10.Push Button Status
p2360
(lp2361
sVMicroWin.PLC Bldg C FL3.C-FL3-Door40.Disable Push Button
p2362
(lp2363
sVMicroWin.PLC Bldg B FL2.B-FL2-Door02.Command Door Unlock
p2364
(lp2365
sVMicroWin.PLC Bldg D7-2 FL2-3.D7-2-FL3-Door11.Open Time Alarm Delay
p2366
(lp2367
sVMicroWin.PLC Bldg A FL3.A-FL3-Door31.Open Time Alarm Delay
p2368
(lp2369
sVMicroWin.PLC Bldg B FL3.B-FL3-Door37.Open Time Alarm Delay
p2370
(lp2371
sVMicroWin.PLC Bldg A FL2.A-FL2-Door16.Force Door Alarm
p2372
(lp2373
sVMicroWin.PLC Bldg D7-2 FL2-3.D7-2-FL3-Door12.Push Button Status
p2374
(lp2375
sVMicroWin.PLC Bldg C FL2.C-FL2-Door14.Force Door Alarm
p2376
(lp2377
sVMicroWin.PLC Bldg A FL3.A-FL3-Door27.Open Time Alarm Delay
p2378
(lp2379
sVMicroWin.PLC Bldg C FL2.C-FL2-Door15.Force Door Alarm
p2380
(lp2381
sVMicroWin.PLC Bldg A FL3.A-FL3-Door27.Force Door Alarm
p2382
(lp2383
sVMicroWin.PLC Bldg D7-1 FL2-3.D7-1-FL3-Door12.Push Button Status
p2384
(lp2385
sVMicroWin.PLC Bldg A FL2.A-FL2-Door14.Open Time Alarm Delay
p2386
(lp2387
sVMicroWin.PLC Bldg C FL3.C-FL3-Door40.Command Door Unlock
p2388
(lp2389
sVMicroWin.PLC Bldg B FL2.B-FL2-Door08.Disable Push Button
p2390
(lp2391
sVMicroWin.PLC Bldg D7-1 FL2-3.D7-1-FL2-Door2.Open Time Alarm Delay
p2392
(lp2393
sVMicroWin.PLC Bldg A FL3.A-FL3-Door25.Door Status
p2394
(lp2395
sVMicroWin.PLC Bldg D7-1 FL2-3.D7-1-FL3-Door12.Door Status
p2396
(lp2397
sVMicroWin.PLC Bldg C FL2.C-FL2-Door18.Disable Push Button
p2398
(lp2399
sVMicroWin.PLC Bldg D7-2 FL2-3.D7-2-FL3-Door11.Disable Push Button
p2400
(lp2401
sVMicroWin.PLC Bldg B FL3.B-FL3-Door34.Command Door Unlock
p2402
(lp2403
sVMicroWin.PLC Bldg B FL2.PLC-Slave Addr3-Online-Status
p2404
(lp2405
sVMicroWin.PLC Bldg A FL3.A-FL3-Door23.Force Door Alarm
p2406
(lp2407
sVMicroWin.PLC Bldg B FL2.B-FL2-Door04.Disable Push Button
p2408
(lp2409
sVMicroWin.PLC Bldg B FL3.B-FL3-Door33.Command Door Unlock
p2410
(lp2411
sVMicroWin.PLC Bldg A FL3.A-FL3-Door37.Disable Push Button
p2412
(lp2413
sVMicroWin.PLC Bldg D7-1 FL2-3.D7-1-FL2-Door1.Push Button Status
p2414
(lp2415
sVMicroWin.PLC Bldg A FL3.A-FL3-Door22.Disable Push Button
p2416
(lp2417
sVMicroWin.PLC Bldg D7-1 FL2-3.D7-1-FL3-Door12.Command Door Unlock
p2418
(lp2419
sVMicroWin.PLC Bldg C FL2.C-FL2-Door10.Disable Push Button
p2420
(lp2421
sVMicroWin.PLC Bldg A FL2.A-FL2-Door09.Door Status
p2422
(lp2423
sVMicroWin.PLC Bldg B FL2.B-FL2-Door15.Door Status
p2424
(lp2425
sVMicroWin.PLC Bldg A FL2.A-FL2-Door01.Disable Push Button
p2426
(lp2427
sVMicroWin.PLC Bldg B FL3.B-FL3-Door31.Command Door Unlock
p2428
(lp2429
sVMicroWin.PLC Bldg A FL3.A-FL3-Door31.Force Door Alarm
p2430
(lp2431
sVMicroWin.PLC Bldg B FL3.B-FL3-Door22.Door Left  Alarm
p2432
(lp2433
sVMicroWin.PLC Bldg B FL3.B-FL3-Door32.Output Lock State
p2434
(lp2435
sVMicroWin.PLC Bldg D7-1 FL2-3.D7-1-FL2-Door3.Force Door Alarm
p2436
(lp2437
sVMicroWin.PLC Bldg C FL3.C-FL3-Door23.Push Button Status
p2438
(lp2439
sVMicroWin.PLC Bldg C FL2.C-FL2-Door02.Force Door Alarm
p2440
(lp2441
ssVSCADAEngine.BACnetOPCServer
p2442
(dp2443
g113
(lp2444
(g115
g116
tp2445
a(g118
g119
tp2446
a(g121
VOpenOPC
p2447
tp2448
a(g124
S'admin-d57084cf6'
p2449
tp2450
a(g127
VSCADAEngine.BACnetOPCServer
p2451
tp2452
a(g130
g131
tp2453
a(g133
S'0.0 (Build 0)'
p2454
tp2455
a(g136
S'Flat'
p2456
tp2457
a(g139
S'08/02/11 15:56:37'
p2458
tp2459
a(g142
S'08/02/11 16:20:15'
p2460
tp2461
a(g145
VSCADA Engine
p2462
tp2463
assVKJTModbus
p2464
(dp2465
VPLC-1\u005cEngineer\u005cCOM.PresentValue
p2466
(lp2467
sg113
(lp2468
(g115
g116
tp2469
a(g118
g119
tp2470
a(g121
VOpenOPC
p2471
tp2472
a(g124
S'admin-d57084cf6'
p2473
tp2474
a(g127
VKJTModbus
p2475
tp2476
a(g130
g131
tp2477
a(g133
S'0.0 (Build 0)'
p2478
tp2479
a(g136
g137
tp2480
a(g139
S'08/02/11 15:34:56'
p2481
tp2482
a(g142
S'08/02/11 16:20:15'
p2483
tp2484
a(g145
VKJ Corp.
p2485
tp2486
asVPLC-1\u005cEngineer\u005crrr.PresentValue
p2487
(lp2488
sVPLC-2\u005cHHH\u005cHHA\u005cTEMP.PresentValue
p2489
(lp2490
sVPLC-1\u005cEngineer\u005cair.PresentValue
p2491
(lp2492
sVPLC-1\u005cEngineer\u005cHum.PresentValue
p2493
(lp2494
sVPLC-1\u005cEngineer\u005cuuu.PresentValue
p2495
(lp2496
sVPLC-2\u005cHHH\u005cHHA\u005cHUM.PresentValue
p2497
(lp2498
sVPLC-2\u005cHHH\u005cHum.PresentValue
p2499
(lp2500
sVPLC-1\u005cEngineer\u005cLighting.PresentValue
p2501
(lp2502
sVPLC-1\u005cEngineer\u005cTemp.PresentValue
p2503
(lp2504
sVPLC-2\u005cHHH\u005cTemp.PresentValue
p2505
(lp2506
ssVKEPware.KEPServerEx.V4
p2507
(dp2508
VChannel_0_User_Defined.Ramp._Hints.K0-K9998 [r][c] Float
p2509
(lp2510
sVChannel_0_User_Defined.Ramp.Ramp4
p2511
(lp2512
sVChannel_1.Device_1._Hints.K0-K9996 [r][c] Double
p2513
(lp2514
sVChannel_0_User_Defined.Ramp.Ramp1
p2515
(lp2516
sVChannel_0_User_Defined.Ramp.Ramp3
p2517
(lp2518
sVChannel_0_User_Defined.Ramp.Ramp2
p2519
(lp2520
sVChannel_3.Device_4._Hints.R0-R9998 [r][c] DWord
p2521
(lp2522
sVChannel_4.Device_5._Hints.R0-R9996 [r][c] Double
p2523
(lp2524
sVChannel_0_User_Defined.Random._Hints.K0-K9999 [r][c] BCD
p2525
(lp2526
sVChannel_4.Device_6._Hints.K0-K9996 Double
p2527
(lp2528
sVChannel_0_User_Defined.Sine._Hints.R0-R9998 [r][c] DWord
p2529
(lp2530
sVChannel_2.Device_3._Hints.K0-K9998 [r][c] DWord
p2531
(lp2532
sVChannel_1.Device_1._Hints.R0-R9998 LBCD
p2533
(lp2534
sVChannel_2.Device_3._Hints.K0-K9998 [r][c] LBCD
p2535
(lp2536
sVChannel_3.Device_4._Hints.R0-R9998 Float
p2537
(lp2538
sVChannel_3.Device_4._Hints.K0-K9998 [r][c] LBCD
p2539
(lp2540
sVChannel_2.Device_3._Hints.R0-R9998 DWord
p2541
(lp2542
sV_System._Date
p2543
(lp2544
sVChannel_0_User_Defined.Sine._Hints.R0-R9998 LBCD
p2545
(lp2546
sVChannel_4.Device_6._Hints.R0-R9996 [r][c] Double
p2547
(lp2548
sVChannel_3.Device_4._Hints.R0-R9998 DWord
p2549
(lp2550
sVChannel_0_User_Defined.Ramp._Hints.K0-K9998 Float
p2551
(lp2552
sVChannel_0_User_Defined.Ramp._Hints.K0-K9998 [r][c] Long
p2553
(lp2554
sVChannel_0_User_Defined.User._Hints.K0-K9999 [r][c] BCD
p2555
(lp2556
sVChannel_0_User_Defined.User._Hints.R0-R9996 [r][c] Double
p2557
(lp2558
sVChannel_0_User_Defined.Random._Hints.K0.0-K9999.0...K0.15-K9999.15 Boolean
p2559
(lp2560
sVChannel_0_User_Defined.User._Hints.K0-K9998 [r][c] DWord
p2561
(lp2562
sVChannel_4.Device_5._Hints.R0-R9998 Long
p2563
(lp2564
sV_System._Date_Month
p2565
(lp2566
sVChannel_4.Device_6._Hints.R0-R9998 LBCD
p2567
(lp2568
sVChannel_0_User_Defined.Random.Random2
p2569
(lp2570
sVChannel_0_User_Defined.Random.Random1
p2571
(lp2572
sVChannel_4.Device_6._System._Error
p2573
(lp2574
sVChannel_1.Device_2._System._Simulated
p2575
(lp2576
sVChannel_0_User_Defined.Random.RandomYaxis
p2577
(lp2578
sVChannel_0_User_Defined.User._Hints.R0.0-R9999.0...R0.15-R9999.15 Boolean
p2579
(lp2580
sVChannel_4.Device_6._Hints.R0-R9998 Long
p2581
(lp2582
sVChannel_4.Device_5._Hints.K0-K9996 [r][c] Double
p2583
(lp2584
sVChannel_0_User_Defined.Sine._Hints.R0-R9998 Float
p2585
(lp2586
sVChannel_4.Device_6._Hints.R0-R9999 [r][c] BCD
p2587
(lp2588
sVChannel_4.Device_6._Hints.R0-R9999 Word
p2589
(lp2590
sVChannel_0_User_Defined.Random._Hints.R0-R9998 [r][c] LBCD
p2591
(lp2592
sVChannel_3.Device_4._System._Enabled
p2593
(lp2594
sVChannel_1._System._WriteOptimizationDutyCycle
p2595
(lp2596
sVChannel_4.Device_6._System._NoError
p2597
(lp2598
sVChannel_4.Device_6._Hints.K0-K9996 [r][c] Double
p2599
(lp2600
sVChannel_3.Device_4._Hints.K0-K9998 Long
p2601
(lp2602
sVChannel_1.Device_1._Hints.K0-K9999 [r][c] BCD
p2603
(lp2604
sVChannel_1.Device_2._System._Error
p2605
(lp2606
sVChannel_0_User_Defined.Random._Hints.K0-K9998 [r][c] Float
p2607
(lp2608
sVChannel_0_User_Defined._System._WriteOptimizationDutyCycle
p2609
(lp2610
sVChannel_1.Device_1._Hints.K0-K9996 Double
p2611
(lp2612
sVChannel_4.Device_5._Hints.R0-R9998 [r][c] Long
p2613
(lp2614
sVChannel_1.Device_2._Hints.S0-S999 String
p2615
(lp2616
sVChannel_0_User_Defined.Sine._Hints.R0-R9999 [r][c] BCD
p2617
(lp2618
sVChannel_3.Device_4._System._Error
p2619
(lp2620
sVChannel_0_User_Defined.Random._Hints.R0-R9998 [r][c] Long
p2621
(lp2622
sVChannel_2.Device_3._Hints.K0-K9999 BCD
p2623
(lp2624
sVChannel_0_User_Defined.User._Hints.K0-K9999 Short
p2625
(lp2626
sVChannel_0_User_Defined.User._Hints.K0-K9999 BCD
p2627
(lp2628
sVChannel_0_User_Defined.Random._Hints.R0-R9998 Long
p2629
(lp2630
sVChannel_0_User_Defined.User._Hints.K0-K9996 Double
p2631
(lp2632
sVChannel_4.Device_6._Hints.K0-K9999 [r][c] Word
p2633
(lp2634
sVChannel_4.Device_5._Hints.R0-R9998 [r][c] Float
p2635
(lp2636
sVChannel_2.Device_3._Hints.R0-R9999 Word
p2637
(lp2638
sVChannel_1.Device_2._Hints.R0-R9999 BCD
p2639
(lp2640
sVChannel_3.Device_4._Hints.R0-R9998 [r][c] Long
p2641
(lp2642
sVChannel_0_User_Defined.Sine._Hints.K0-K9999 [r][c] BCD
p2643
(lp2644
sVChannel_2.Device_3._Hints.K0-K9999 [r][c] BCD
p2645
(lp2646
sVChannel_1.Device_2._Hints.K0-K9999 Short
p2647
(lp2648
sVChannel_2.Device_3._System._NoError
p2649
(lp2650
sVChannel_0_User_Defined.Random._Hints.R0-R9999 Short
p2651
(lp2652
sVChannel_3._System._WriteOptimizationDutyCycle
p2653
(lp2654
sVChannel_0_User_Defined.Ramp._Hints.K0-K9999 Short
p2655
(lp2656
sVChannel_0_User_Defined.Ramp._Hints.R0.0-R9999.0...R0.15-R9999.15 Boolean
p2657
(lp2658
sVChannel_0_User_Defined.User._Hints.R0-R9999 BCD
p2659
(lp2660
sVChannel_1.Device_1._Hints.K0-K9999 Word
p2661
(lp2662
sVChannel_0_User_Defined.Random._Hints.K0-K9998 LBCD
p2663
(lp2664
sVChannel_3.Device_4._Hints.R0.0-R9999.0...R0.15-R9999.15 Boolean
p2665
(lp2666
sVChannel_3.Device_4._Hints.R0-R9999 [r][c] BCD
p2667
(lp2668
sVChannel_0_User_Defined.User._Hints.R0-R9998 [r][c] DWord
p2669
(lp2670
sVChannel_4.Device_6._Hints.K0-K9999 BCD
p2671
(lp2672
sVChannel_0_User_Defined.Random._Hints.R0-R9996 Double
p2673
(lp2674
sVChannel_4.Device_6._Hints.K0-K9999 Short
p2675
(lp2676
sVChannel_4.Device_6._Hints.K0-K9998 [r][c] DWord
p2677
(lp2678
sVChannel_4.Device_5._Hints.K0-K9998 [r][c] LBCD
p2679
(lp2680
sVChannel_0_User_Defined.Sine._System._DeviceId
p2681
(lp2682
sVChannel_0_User_Defined.Sine._Hints.K0-K9999 [r][c] Short
p2683
(lp2684
sVChannel_2.Device_3._Hints.R0-R9998 Long
p2685
(lp2686
sVChannel_4.Device_6._Hints.K0.0-K9999.0...K0.15-K9999.15 Boolean
p2687
(lp2688
sVChannel_2.Device_3._Hints.R0-R9996 Double
p2689
(lp2690
sVChannel_2._System._EnableDiagnostics
p2691
(lp2692
sVChannel_0_User_Defined.Sine._Hints.K0-K9996 [r][c] Double
p2693
(lp2694
sVChannel_1.Device_1._Hints.R0-R9999 [r][c] Short
p2695
(lp2696
sVChannel_0_User_Defined.Random._Hints.K0-K9999 [r][c] Short
p2697
(lp2698
sVChannel_3.Device_4._Hints.S0-S999 String
p2699
(lp2700
sVChannel_1.Device_1._Hints.K0-K9998 DWord
p2701
(lp2702
sVChannel_0_User_Defined.Sine._Hints.R0-R9998 [r][c] LBCD
p2703
(lp2704
sVChannel_4.Device_5._Hints.R0-R9999 [r][c] Short
p2705
(lp2706
sVChannel_1.Device_1._Hints.R0-R9998 [r][c] Long
p2707
(lp2708
sV_System._ClientCount
p2709
(lp2710
sVChannel_3._System._EnableDiagnostics
p2711
(lp2712
sVChannel_0_User_Defined.Sine._Hints.R0-R9998 DWord
p2713
(lp2714
sVChannel_0_User_Defined.User._System._NoError
p2715
(lp2716
sVChannel_0_User_Defined.User._System._DeviceId
p2717
(lp2718
sVChannel_0_User_Defined.User._Hints.R0-R9999 Word
p2719
(lp2720
sVChannel_4._System._WriteOptimizationDutyCycle
p2721
(lp2722
sVChannel_0_User_Defined.Ramp._Hints.K0-K9998 [r][c] DWord
p2723
(lp2724
sVChannel_2.Device_3._System._Error
p2725
(lp2726
sVChannel_1.Device_1._Hints.R0-R9998 [r][c] LBCD
p2727
(lp2728
sV_System._Time
p2729
(lp2730
sVChannel_1.Device_2._Hints.R0-R9998 [r][c] Float
p2731
(lp2732
sVChannel_1.Device_2._Hints.R0-R9996 Double
p2733
(lp2734
sVChannel_2.Device_3._Hints.R0-R9998 [r][c] LBCD
p2735
(lp2736
sVChannel_2.Device_3._Hints.R0-R9998 [r][c] DWord
p2737
(lp2738
sVChannel_1.Device_2._Hints.K0-K9998 DWord
p2739
(lp2740
sVChannel_2.Device_3._Hints.R0-R9999 [r][c] Word
p2741
(lp2742
sVChannel_0_User_Defined.Ramp._System._NoError
p2743
(lp2744
sVChannel_0_User_Defined.Sine._Hints.K0-K9998 [r][c] Float
p2745
(lp2746
sVChannel_0_User_Defined.Random.RandomXaxis
p2747
(lp2748
sVChannel_0_User_Defined.Ramp._Hints.R0-R9998 Float
p2749
(lp2750
sVChannel_4.Device_6._System._Simulated
p2751
(lp2752
sVChannel_4.Device_5._Hints.R0-R9998 Float
p2753
(lp2754
sVChannel_0_User_Defined.Ramp._System._Error
p2755
(lp2756
sVChannel_0_User_Defined.Ramp._Hints.R0-R9998 [r][c] DWord
p2757
(lp2758
sVChannel_1._System._EnableDiagnostics
p2759
(lp2760
sVChannel_2.Device_3._System._DeviceId
p2761
(lp2762
sVChannel_3.Device_4._Hints.R0-R9999 Short
p2763
(lp2764
sVChannel_0_User_Defined.Random._Hints.K0-K9998 DWord
p2765
(lp2766
sVChannel_0_User_Defined.User._Hints.K0-K9999 Word
p2767
(lp2768
sVChannel_3.Device_4._Hints.R0-R9998 LBCD
p2769
(lp2770
sVChannel_1.Device_2._System._NoError
p2771
(lp2772
sVChannel_0_User_Defined.Random._Hints.R0-R9996 [r][c] Double
p2773
(lp2774
sVChannel_4.Device_6._Hints.K0-K9998 [r][c] Long
p2775
(lp2776
sVChannel_0_User_Defined.Sine._Hints.K0-K9998 Float
p2777
(lp2778
sVChannel_0_User_Defined.Sine._System._Enabled
p2779
(lp2780
sVChannel_4.Device_5._Hints.R0-R9998 [r][c] LBCD
p2781
(lp2782
sVChannel_0_User_Defined.Random._Hints.K0-K9998 [r][c] Long
p2783
(lp2784
sVChannel_2.Device_3._Hints.K0-K9998 DWord
p2785
(lp2786
sVChannel_0_User_Defined.Ramp._Hints.R0-R9996 [r][c] Double
p2787
(lp2788
sVChannel_4.Device_6.Bool_0
p2789
(lp2790
sVChannel_0_User_Defined.Ramp._Hints.K0-K9999 Word
p2791
(lp2792
sVChannel_4.Device_5._Hints.K0.0-K9999.0...K0.15-K9999.15 Boolean
p2793
(lp2794
sVChannel_4.Device_5.Tag_1
p2795
(lp2796
sVChannel_0_User_Defined.Sine._Hints.R0-R9999 [r][c] Short
p2797
(lp2798
sVChannel_4.Device_6._Hints.R0-R9999 [r][c] Word
p2799
(lp2800
sVChannel_3.Device_4._Hints.K0.0-K9999.0...K0.15-K9999.15 Boolean
p2801
(lp2802
sVChannel_2.Device_3._Hints.K0.0-K9999.0...K0.15-K9999.15 Boolean
p2803
(lp2804
sVChannel_2.Device_3._Hints.S0-S999 String
p2805
(lp2806
sVChannel_3.Device_4._Hints.R0-R9996 Double
p2807
(lp2808
sVChannel_1.Device_1._Hints.R0.0-R9999.0...R0.15-R9999.15 Boolean
p2809
(lp2810
sVChannel_1.Device_2._Hints.K0-K9999 [r][c] BCD
p2811
(lp2812
sVChannel_4.Device_5._Hints.R0-R9998 DWord
p2813
(lp2814
sVChannel_0_User_Defined.Sine._Hints.S0-S999 String
p2815
(lp2816
sV_System._Time_Minute
p2817
(lp2818
sVChannel_1.Device_1._Hints.R0-R9998 Long
p2819
(lp2820
sVChannel_3.Device_4._Hints.K0-K9998 [r][c] DWord
p2821
(lp2822
sVChannel_1.Device_1.Tag_1
p2823
(lp2824
sVChannel_1.Device_1.Tag_2
p2825
(lp2826
sVChannel_1.Device_1.Tag_3
p2827
(lp2828
sVChannel_1.Device_1._Hints.K0-K9999 BCD
p2829
(lp2830
sVChannel_3.Device_4._Hints.K0-K9998 LBCD
p2831
(lp2832
sVChannel_2.Device_3._Hints.K0-K9998 Long
p2833
(lp2834
sVChannel_2.Device_3._Hints.R0-R9999 [r][c] BCD
p2835
(lp2836
sVChannel_4.Device_5._Hints.R0-R9999 [r][c] BCD
p2837
(lp2838
sVChannel_0_User_Defined.Sine._Hints.K0-K9999 BCD
p2839
(lp2840
sVChannel_4.Device_6._Hints.K0-K9999 [r][c] BCD
p2841
(lp2842
sVChannel_2.Device_3._Hints.K0-K9999 Short
p2843
(lp2844
sVChannel_0_User_Defined.Random.Random3
p2845
(lp2846
sVChannel_0_User_Defined.Ramp._Hints.R0-R9999 Short
p2847
(lp2848
sVChannel_0_User_Defined.Ramp._Hints.R0-R9998 LBCD
p2849
(lp2850
sVChannel_1.Device_2._System._Enabled
p2851
(lp2852
sVChannel_3.Device_4._Hints.K0-K9998 Float
p2853
(lp2854
sVChannel_1.Device_1._Hints.K0-K9998 LBCD
p2855
(lp2856
sVChannel_0_User_Defined.Random._Hints.K0-K9998 [r][c] DWord
p2857
(lp2858
sVChannel_4.Device_5._Hints.R0-R9998 [r][c] DWord
p2859
(lp2860
sVChannel_4.Device_5._System._DeviceId
p2861
(lp2862
sVChannel_0_User_Defined.User._Hints.S0-S999 String
p2863
(lp2864
sVChannel_0_User_Defined.User._Hints.R0-R9998 DWord
p2865
(lp2866
sVChannel_4.Device_5._Hints.R0-R9999 Word
p2867
(lp2868
sVChannel_4.Device_6._Hints.K0-K9998 Long
p2869
(lp2870
sVChannel_0_User_Defined.Random._Hints.R0-R9999 [r][c] Word
p2871
(lp2872
sVChannel_0_User_Defined.Sine._Hints.R0-R9998 [r][c] Long
p2873
(lp2874
sVChannel_0_User_Defined.Ramp._Hints.K0-K9998 [r][c] LBCD
p2875
(lp2876
sVChannel_0_User_Defined.Random._Hints.S0-S999 String
p2877
(lp2878
sVChannel_3.Device_4._Hints.K0-K9996 Double
p2879
(lp2880
sVChannel_0_User_Defined.Sine._Hints.R0-R9999 Short
p2881
(lp2882
sVChannel_1.Device_1._Hints.K0-K9998 [r][c] DWord
p2883
(lp2884
sVChannel_0_User_Defined.Ramp._Hints.K0-K9998 DWord
p2885
(lp2886
sVChannel_2.Device_3._Hints.R0.0-R9999.0...R0.15-R9999.15 Boolean
p2887
(lp2888
sVChannel_3.Device_4._Hints.R0-R9999 Word
p2889
(lp2890
sVChannel_0_User_Defined.Ramp._Hints.R0-R9999 [r][c] Short
p2891
(lp2892
sVChannel_3.Device_4._System._NoError
p2893
(lp2894
sVChannel_4.Device_5._Hints.R0-R9998 LBCD
p2895
(lp2896
sVChannel_0_User_Defined.Ramp._Hints.K0-K9999 [r][c] Word
p2897
(lp2898
sVChannel_2.Device_3._Hints.R0-R9998 LBCD
p2899
(lp2900
sVChannel_0_User_Defined.User._Hints.R0-R9998 Float
p2901
(lp2902
sVChannel_0_User_Defined.Ramp._Hints.R0-R9999 [r][c] Word
p2903
(lp2904
sVChannel_1.Device_1._Hints.K0-K9999 [r][c] Word
p2905
(lp2906
sVChannel_0_User_Defined.Sine._Hints.R0-R9999 Word
p2907
(lp2908
sVChannel_0_User_Defined.User._Hints.K0-K9999 [r][c] Short
p2909
(lp2910
sVChannel_2.Device_3._System._Simulated
p2911
(lp2912
sVChannel_2.Device_3._Hints.R0-R9999 [r][c] Short
p2913
(lp2914
sVChannel_1.Device_1._Hints.R0-R9999 BCD
p2915
(lp2916
sVChannel_4.Device_6._Hints.K0-K9998 [r][c] LBCD
p2917
(lp2918
sVChannel_0_User_Defined.Random._Hints.R0-R9998 LBCD
p2919
(lp2920
sVChannel_0_User_Defined.Random._Hints.K0-K9996 Double
p2921
(lp2922
sVChannel_3.Device_4._Hints.K0-K9999 Short
p2923
(lp2924
sVChannel_0_User_Defined.Sine._Hints.R0-R9998 [r][c] Float
p2925
(lp2926
sVChannel_1.Device_2._Hints.R0-R9999 [r][c] Short
p2927
(lp2928
sVChannel_2.Device_3._System._Enabled
p2929
(lp2930
sVChannel_4.Device_5._Hints.K0-K9998 [r][c] Long
p2931
(lp2932
sVChannel_0_User_Defined.User._Hints.K0-K9999 [r][c] Word
p2933
(lp2934
sVChannel_3.Device_4._Hints.K0-K9998 [r][c] Float
p2935
(lp2936
sVChannel_1.Device_2._Hints.K0-K9996 Double
p2937
(lp2938
sVChannel_0_User_Defined.Random._Hints.K0-K9999 Short
p2939
(lp2940
sVChannel_0_User_Defined.User._Hints.K0-K9998 [r][c] LBCD
p2941
(lp2942
sVChannel_3.Device_4._Hints.R0-R9998 Long
p2943
(lp2944
sVChannel_4.Device_5._System._Error
p2945
(lp2946
sVChannel_0_User_Defined.Ramp._Hints.K0-K9996 [r][c] Double
p2947
(lp2948
sVChannel_2.Device_3._Hints.R0-R9998 [r][c] Float
p2949
(lp2950
sVChannel_1.Device_2._Hints.R0-R9998 [r][c] Long
p2951
(lp2952
sVChannel_0_User_Defined.User.User3
p2953
(lp2954
sVChannel_0_User_Defined.User.User2
p2955
(lp2956
sVChannel_0_User_Defined.User.User1
p2957
(lp2958
sVChannel_0_User_Defined.User.User4
p2959
(lp2960
sVChannel_4.Device_6._Hints.R0-R9998 [r][c] DWord
p2961
(lp2962
sVChannel_1.Device_2._Hints.K0-K9996 [r][c] Double
p2963
(lp2964
sVChannel_0_User_Defined.Random._System._DeviceId
p2965
(lp2966
sVChannel_4.Device_5._Hints.K0-K9998 LBCD
p2967
(lp2968
sVChannel_3.Device_4._Hints.R0-R9999 [r][c] Short
p2969
(lp2970
sVChannel_4.Device_5._Hints.R0-R9996 Double
p2971
(lp2972
sVChannel_0_User_Defined.Sine._Hints.K0-K9999 [r][c] Word
p2973
(lp2974
sVChannel_0_User_Defined.Ramp._Hints.R0-R9999 Word
p2975
(lp2976
sVChannel_0_User_Defined.Sine._System._Error
p2977
(lp2978
sVChannel_0_User_Defined.User._Hints.R0-R9998 LBCD
p2979
(lp2980
sVChannel_0_User_Defined.User._Hints.R0-R9998 [r][c] Float
p2981
(lp2982
sVChannel_3.Device_4._Hints.K0-K9998 [r][c] Long
p2983
(lp2984
sVChannel_4.Device_6._Hints.R0-R9998 DWord
p2985
(lp2986
sVChannel_0_User_Defined.Ramp._Hints.R0-R9998 Long
p2987
(lp2988
sVChannel_3.Device_4._Hints.K0-K9998 DWord
p2989
(lp2990
sVChannel_3.Device_4._Hints.K0-K9999 [r][c] Short
p2991
(lp2992
sVChannel_0_User_Defined.Random._Hints.K0-K9999 Word
p2993
(lp2994
sVChannel_4.Device_5._Hints.R0.0-R9999.0...R0.15-R9999.15 Boolean
p2995
(lp2996
sVChannel_0_User_Defined.Ramp._System._Simulated
p2997
(lp2998
sVChannel_2.Device_3._Hints.R0-R9996 [r][c] Double
p2999
(lp3000
sVChannel_0_User_Defined.User._Hints.R0-R9996 Double
p3001
(lp3002
sVChannel_1.Device_1._System._DeviceId
p3003
(lp3004
sV_System._TotalTagCount
p3005
(lp3006
sVChannel_4.Device_5.Word_1
p3007
(lp3008
sVChannel_0_User_Defined.Random._System._Simulated
p3009
(lp3010
sVChannel_0_User_Defined.User._Hints.K0-K9998 Long
p3011
(lp3012
sVChannel_1.Device_2._Hints.K0.0-K9999.0...K0.15-K9999.15 Boolean
p3013
(lp3014
sVChannel_1.Device_2._System._DeviceId
p3015
(lp3016
sVChannel_0_User_Defined.Sine._Hints.K0-K9998 [r][c] DWord
p3017
(lp3018
sVChannel_0_User_Defined.Random._Hints.K0-K9999 [r][c] Word
p3019
(lp3020
sVChannel_2.Device_3._Hints.R0-R9999 Short
p3021
(lp3022
sVChannel_1.Device_2._Hints.R0-R9998 [r][c] DWord
p3023
(lp3024
sVChannel_0_User_Defined.Ramp._Hints.R0-R9998 [r][c] LBCD
p3025
(lp3026
sVChannel_0_User_Defined.Ramp._Hints.K0.0-K9999.0...K0.15-K9999.15 Boolean
p3027
(lp3028
sV_System._Time_Hour24
p3029
(lp3030
sVChannel_4.Device_5._Hints.R0-R9999 [r][c] Word
p3031
(lp3032
sVChannel_0_User_Defined.Ramp._Hints.K0-K9998 Long
p3033
(lp3034
sVChannel_0_User_Defined.Sine._Hints.K0-K9998 LBCD
p3035
(lp3036
sVChannel_0_User_Defined.Random._Hints.K0-K9996 [r][c] Double
p3037
(lp3038
sVChannel_1.Device_1._Hints.R0-R9998 [r][c] Float
p3039
(lp3040
sVChannel_1.Device_1._Hints.R0-R9999 Short
p3041
(lp3042
sVChannel_2.Device_3._Hints.R0-R9998 Float
p3043
(lp3044
sVChannel_0_User_Defined.Random._Hints.R0.0-R9999.0...R0.15-R9999.15 Boolean
p3045
(lp3046
sVChannel_4.Device_6._Hints.K0-K9998 DWord
p3047
(lp3048
sVChannel_4.Device_5._Hints.K0-K9998 Long
p3049
(lp3050
sVChannel_0_User_Defined.Ramp._Hints.R0-R9996 Double
p3051
(lp3052
sVChannel_0_User_Defined.Random._Hints.R0-R9999 BCD
p3053
(lp3054
sVChannel_2.Device_3.Tag_3
p3055
(lp3056
sVChannel_2.Device_3.Tag_2
p3057
(lp3058
sVChannel_2.Device_3.Tag_1
p3059
(lp3060
sVChannel_0_User_Defined.Ramp._Hints.K0-K9999 [r][c] Short
p3061
(lp3062
sVChannel_0_User_Defined.Sine._Hints.K0-K9998 DWord
p3063
(lp3064
sVChannel_4.Device_6.Bool_15
p3065
(lp3066
sVChannel_0_User_Defined.Ramp._Hints.S0-S999 String
p3067
(lp3068
sVChannel_0_User_Defined.Random._Hints.R0-R9999 [r][c] Short
p3069
(lp3070
sVChannel_1.Device_1._Hints.R0-R9996 [r][c] Double
p3071
(lp3072
sVChannel_1.Device_1._System._Enabled
p3073
(lp3074
sVChannel_4.Device_5._System._Enabled
p3075
(lp3076
sVChannel_4.Device_6._Hints.R0-R9998 [r][c] LBCD
p3077
(lp3078
sVChannel_4.Device_6._Hints.R0-R9998 [r][c] Float
p3079
(lp3080
sVChannel_4.Device_5._System._NoError
p3081
(lp3082
sVChannel_1.Device_2.Bool_14
p3083
(lp3084
sVChannel_1.Device_2.Bool_15
p3085
(lp3086
sVChannel_1.Device_2.Bool_10
p3087
(lp3088
sVChannel_1.Device_2.Bool_11
p3089
(lp3090
sVChannel_1.Device_2.Bool_12
p3091
(lp3092
sVChannel_1.Device_2.Bool_13
p3093
(lp3094
sVChannel_1.Device_1._Hints.K0-K9998 [r][c] Float
p3095
(lp3096
sVChannel_0_User_Defined.Ramp.RampXL3
p3097
(lp3098
sVChannel_0_User_Defined.Ramp.RampXL2
p3099
(lp3100
sVChannel_4.Device_6._Hints.R0-R9998 Float
p3101
(lp3102
sVChannel_4.Device_6._Hints.K0-K9998 [r][c] Float
p3103
(lp3104
sVChannel_4.Device_6._Hints.K0-K9998 LBCD
p3105
(lp3106
sVChannel_0_User_Defined.Random._Hints.R0-R9998 DWord
p3107
(lp3108
sVChannel_0_User_Defined.Ramp._System._DeviceId
p3109
(lp3110
sVChannel_4.Device_5._Hints.K0-K9999 Word
p3111
(lp3112
sVChannel_0_User_Defined.Random._Hints.K0-K9998 Long
p3113
(lp3114
sVChannel_0_User_Defined.User._Hints.R0-R9999 [r][c] BCD
p3115
(lp3116
sVChannel_0_User_Defined.User._Hints.R0-R9998 Long
p3117
(lp3118
sVChannel_0_User_Defined.User._Hints.K0-K9998 [r][c] Float
p3119
(lp3120
sVChannel_1.Device_2._Hints.K0-K9998 LBCD
p3121
(lp3122
sVChannel_1.Device_1._Hints.R0-R9999 Word
p3123
(lp3124
sVChannel_4.Device_5._Hints.K0-K9999 Short
p3125
(lp3126
sVChannel_0_User_Defined.User._Hints.K0-K9998 DWord
p3127
(lp3128
sVChannel_0_User_Defined.Random._Hints.K0-K9999 BCD
p3129
(lp3130
sVChannel_0_User_Defined.Random._System._Enabled
p3131
(lp3132
sVChannel_0_User_Defined.Ramp._Hints.R0-R9998 [r][c] Long
p3133
(lp3134
sVChannel_0_User_Defined.Sine._Hints.K0-K9998 [r][c] Long
p3135
(lp3136
sVChannel_0_User_Defined.User._Hints.R0-R9999 [r][c] Short
p3137
(lp3138
sVChannel_1.Device_2._Hints.R0-R9999 Word
p3139
(lp3140
sVChannel_0_User_Defined.Ramp._Hints.K0-K9999 [r][c] BCD
p3141
(lp3142
sVChannel_3.Device_4._Hints.K0-K9999 BCD
p3143
(lp3144
sVChannel_3.Device_4._System._Simulated
p3145
(lp3146
sVChannel_1.Device_2._Hints.K0-K9999 [r][c] Word
p3147
(lp3148
sVChannel_0_User_Defined.Sine._Hints.K0-K9998 Long
p3149
(lp3150
sVChannel_1.Device_2._Hints.R0-R9999 [r][c] Word
p3151
(lp3152
sVChannel_4.Device_5._Hints.K0-K9998 [r][c] Float
p3153
(lp3154
sVChannel_1.Device_2._Hints.K0-K9998 Float
p3155
(lp3156
sVChannel_0_User_Defined.Ramp._System._Enabled
p3157
(lp3158
sVChannel_1.Device_2._Hints.K0-K9999 [r][c] Short
p3159
(lp3160
sVChannel_3.Device_4._Hints.R0-R9996 [r][c] Double
p3161
(lp3162
sVChannel_0_User_Defined.Sine._Hints.R0-R9999 [r][c] Word
p3163
(lp3164
sVChannel_1.Device_1._Hints.K0-K9999 Short
p3165
(lp3166
sVChannel_4.Device_6._Hints.R0.0-R9999.0...R0.15-R9999.15 Boolean
p3167
(lp3168
sVChannel_0_User_Defined.Sine._Hints.R0-R9998 Long
p3169
(lp3170
sVChannel_0_User_Defined.Ramp.RampXL1
p3171
(lp3172
sVChannel_1.Device_1._Hints.R0-R9998 [r][c] DWord
p3173
(lp3174
sVChannel_4.Device_5._Hints.K0-K9998 DWord
p3175
(lp3176
sVChannel_2.Device_3._Hints.R0-R9999 BCD
p3177
(lp3178
sVChannel_1.Device_1._Hints.R0-R9998 Float
p3179
(lp3180
sVChannel_4.Device_5._Hints.R0-R9999 BCD
p3181
(lp3182
sVChannel_1.Device_1._Hints.K0-K9999 [r][c] Short
p3183
(lp3184
sVChannel_3.Device_4._Hints.K0-K9996 [r][c] Double
p3185
(lp3186
sVChannel_4.Device_6._Hints.K0-K9999 Word
p3187
(lp3188
sVChannel_3.Device_4._Hints.K0-K9999 [r][c] BCD
p3189
(lp3190
sVChannel_0_User_Defined.Sine._Hints.K0.0-K9999.0...K0.15-K9999.15 Boolean
p3191
(lp3192
sVChannel_4.Device_5._Hints.K0-K9998 [r][c] DWord
p3193
(lp3194
sVChannel_2.Device_3._Hints.K0-K9998 [r][c] Float
p3195
(lp3196
sVChannel_0_User_Defined.Ramp._Hints.R0-R9999 [r][c] BCD
p3197
(lp3198
sVChannel_3.Device_4._System._DeviceId
p3199
(lp3200
sVChannel_1.Device_1._Hints.K0-K9998 Long
p3201
(lp3202
sVChannel_0_User_Defined.Sine._Hints.R0-R9999 BCD
p3203
(lp3204
sVChannel_3.Device_4._Hints.R0-R9998 [r][c] LBCD
p3205
(lp3206
sVChannel_4.Device_5._Hints.K0-K9999 [r][c] BCD
p3207
(lp3208
sV_System._Time_PM
p3209
(lp3210
sVChannel_4.Device_6._System._DeviceId
p3211
(lp3212
sV_System._FullProjectName
p3213
(lp3214
sVChannel_4.Device_5._Hints.S0-S999 String
p3215
(lp3216
sVChannel_3.Device_4._Hints.R0-R9999 BCD
p3217
(lp3218
sVChannel_1.Device_2._Hints.R0-R9999 Short
p3219
(lp3220
sVChannel_0_User_Defined.Sine._Hints.K0-K9996 Double
p3221
(lp3222
sVChannel_0_User_Defined.Sine._Hints.R0-R9996 Double
p3223
(lp3224
sVChannel_4.Device_6._Hints.K0-K9998 Float
p3225
(lp3226
sVChannel_0_User_Defined.Random._Hints.K0-K9998 [r][c] LBCD
p3227
(lp3228
sVChannel_0_User_Defined.Ramp._Hints.R0-R9999 BCD
p3229
(lp3230
sVChannel_1.Device_1._Hints.K0-K9998 [r][c] LBCD
p3231
(lp3232
sVChannel_1.Device_2._Hints.R0-R9998 DWord
p3233
(lp3234
sVChannel_4.Device_6._System._Enabled
p3235
(lp3236
sVChannel_0_User_Defined.User._Hints.R0-R9999 Short
p3237
(lp3238
sVChannel_1.Device_2._Hints.R0.0-R9999.0...R0.15-R9999.15 Boolean
p3239
(lp3240
sVChannel_4.Device_6._Hints.R0-R9999 BCD
p3241
(lp3242
sVChannel_0_User_Defined.Ramp._Hints.R0-R9998 DWord
p3243
(lp3244
sVChannel_1.Device_1._Hints.R0-R9996 Double
p3245
(lp3246
sVChannel_1.Device_1._System._NoError
p3247
(lp3248
sVChannel_0_User_Defined.User._Hints.K0-K9998 LBCD
p3249
(lp3250
sVChannel_0_User_Defined.Random._Hints.K0-K9998 Float
p3251
(lp3252
sVChannel_0_User_Defined.Random._Hints.R0-R9998 Float
p3253
(lp3254
sVChannel_0_User_Defined.Ramp._Hints.R0-R9998 [r][c] Float
p3255
(lp3256
sVChannel_1.Device_2._Hints.K0-K9999 Word
p3257
(lp3258
sVChannel_0_User_Defined.User._Hints.R0-R9998 [r][c] LBCD
p3259
(lp3260
sVChannel_3.Device_4.Word_2
p3261
(lp3262
sVChannel_3.Device_4.Word_1
p3263
(lp3264
sV_System._ActiveTagCount
p3265
(lp3266
sVChannel_1.Device_2._Hints.R0-R9996 [r][c] Double
p3267
(lp3268
sVChannel_1.Device_2._Hints.R0-R9998 [r][c] LBCD
p3269
(lp3270
sVChannel_4.Device_6._Hints.S0-S999 String
p3271
(lp3272
sVChannel_0_User_Defined.Sine.Sine3
p3273
(lp3274
sVChannel_0_User_Defined.Sine.Sine2
p3275
(lp3276
sVChannel_0_User_Defined.Sine.Sine1
p3277
(lp3278
sVChannel_3.Device_4._Hints.R0-R9998 [r][c] Float
p3279
(lp3280
sVChannel_0_User_Defined.Sine.Sine5
p3281
(lp3282
sVChannel_0_User_Defined.Sine.Sine4
p3283
(lp3284
sVChannel_4.Device_5._System._Simulated
p3285
(lp3286
sV_System._DateTime
p3287
(lp3288
sVChannel_4.Device_6._Hints.R0-R9996 Double
p3289
(lp3290
sVChannel_1.Device_1.Bool_1
p3291
(lp3292
sVChannel_1.Device_1._Hints.R0-R9999 [r][c] Word
p3293
(lp3294
sVChannel_0_User_Defined.User._Hints.K0-K9998 Float
p3295
(lp3296
sVChannel_0_User_Defined.Sine._System._Simulated
p3297
(lp3298
sVChannel_0_User_Defined.Ramp._Hints.K0-K9998 LBCD
p3299
(lp3300
sVChannel_0_User_Defined.Random._System._Error
p3301
(lp3302
sVChannel_2.Device_3._Hints.K0-K9999 Word
p3303
(lp3304
sVChannel_1.Device_2._Hints.R0-R9999 [r][c] BCD
p3305
(lp3306
sVChannel_1.Device_1._Hints.K0-K9998 [r][c] Long
p3307
(lp3308
sVChannel_0_User_Defined.Sine._Hints.K0-K9999 Word
p3309
(lp3310
sVChannel_3.Device_4._Hints.K0-K9999 Word
p3311
(lp3312
sVChannel_4.Device_6._Hints.R0-R9999 [r][c] Short
p3313
(lp3314
sV_System._DateTimeLocal
p3315
(lp3316
sVChannel_1.Device_2._Hints.R0-R9998 Float
p3317
(lp3318
sVChannel_2.Device_3._Hints.K0-K9996 Double
p3319
(lp3320
sVChannel_1.Device_2._Hints.R0-R9998 Long
p3321
(lp3322
sVChannel_1.Device_2.Bool_8
p3323
(lp3324
sVChannel_1.Device_2.Bool_9
p3325
(lp3326
sVChannel_1.Device_2.Bool_2
p3327
(lp3328
sVChannel_1.Device_2.Bool_3
p3329
(lp3330
sVChannel_1.Device_2.Bool_0
p3331
(lp3332
sVChannel_1.Device_2.Bool_1
p3333
(lp3334
sVChannel_1.Device_2.Bool_6
p3335
(lp3336
sVChannel_1.Device_2.Bool_7
p3337
(lp3338
sVChannel_1.Device_2.Bool_4
p3339
(lp3340
sVChannel_1.Device_2.Bool_5
p3341
(lp3342
sVChannel_1.Device_2._Hints.K0-K9998 [r][c] Float
p3343
(lp3344
sVChannel_0_User_Defined.Ramp._Hints.K0-K9999 BCD
p3345
(lp3346
sVChannel_4.Device_5._Hints.K0-K9998 Float
p3347
(lp3348
sVChannel_3.Device_4._Hints.R0-R9999 [r][c] Word
p3349
(lp3350
sVChannel_1.Device_1._Hints.K0.0-K9999.0...K0.15-K9999.15 Boolean
p3351
(lp3352
sVChannel_4._System._EnableDiagnostics
p3353
(lp3354
sVChannel_0_User_Defined.Random._Hints.R0-R9998 [r][c] DWord
p3355
(lp3356
sVChannel_1.Device_1._System._Simulated
p3357
(lp3358
sV_System._Date_Year2
p3359
(lp3360
sV_System._Date_Year4
p3361
(lp3362
sVChannel_0_User_Defined.Ramp._Hints.K0-K9996 Double
p3363
(lp3364
sVChannel_1.Device_2._Hints.K0-K9998 Long
p3365
(lp3366
sVChannel_0_User_Defined.User._System._Enabled
p3367
(lp3368
sVChannel_1.Device_2._Hints.K0-K9999 BCD
p3369
(lp3370
sVChannel_0_User_Defined.Random._System._NoError
p3371
(lp3372
sVChannel_0_User_Defined.Random._Hints.R0-R9999 [r][c] BCD
p3373
(lp3374
sVChannel_0_User_Defined.User._Hints.K0-K9996 [r][c] Double
p3375
(lp3376
sVChannel_1.Device_1._Hints.S0-S999 String
p3377
(lp3378
sVChannel_2.Device_3._Hints.K0-K9999 [r][c] Word
p3379
(lp3380
sVChannel_0_User_Defined.Random._Hints.R0-R9999 Word
p3381
(lp3382
sVChannel_0_User_Defined.User._Hints.R0-R9999 [r][c] Word
p3383
(lp3384
sVChannel_4.Device_5.Short_1
p3385
(lp3386
sVChannel_2.Device_3._Hints.K0-K9998 Float
p3387
(lp3388
sVChannel_4.Device_6._Hints.R0-R9998 [r][c] Long
p3389
(lp3390
sVChannel_0_User_Defined.Random._Hints.R0-R9998 [r][c] Float
p3391
(lp3392
sVChannel_0_User_Defined.Sine._Hints.K0-K9998 [r][c] LBCD
p3393
(lp3394
sVChannel_4.Device_6._Hints.R0-R9999 Short
p3395
(lp3396
sVChannel_0_User_Defined.User._Hints.K0-K9998 [r][c] Long
p3397
(lp3398
sg113
(lp3399
(g115
g116
tp3400
a(g118
g119
tp3401
a(g121
VOpenOPC
p3402
tp3403
a(g124
S'admin-d57084cf6'
p3404
tp3405
a(g127
VKEPware.KEPServerEx.V4
p3406
tp3407
a(g130
g131
tp3408
a(g133
S'4.264 (Build 401)'
p3409
tp3410
a(g136
g137
tp3411
a(g139
S'08/02/11 16:20:14'
p3412
tp3413
a(g142
S'08/02/11 16:20:15'
p3414
tp3415
a(g145
VKEPware
p3416
tp3417
asVChannel_4.Device_5._Hints.K0-K9999 BCD
p3418
(lp3419
sVChannel_0_User_Defined.User._System._Simulated
p3420
(lp3421
sVChannel_0_User_Defined.Sine._Hints.K0-K9999 Short
p3422
(lp3423
sVChannel_0_User_Defined.Sine._System._NoError
p3424
(lp3425
sVChannel_2.Device_3._Hints.K0-K9996 [r][c] Double
p3426
(lp3427
sVChannel_1.Device_2._Hints.R0-R9998 LBCD
p3428
(lp3429
sVChannel_0_User_Defined.User._System._Error
p3430
(lp3431
sV_System._ProjectName
p3432
(lp3433
sV_System._Time_Hour
p3434
(lp3435
sV_System._Date_Day
p3436
(lp3437
sVChannel_2.Device_3._Hints.K0-K9999 [r][c] Short
p3438
(lp3439
sVChannel_4.Device_5._Hints.K0-K9999 [r][c] Short
p3440
(lp3441
sVChannel_0_User_Defined._System._EnableDiagnostics
p3442
(lp3443
sVChannel_1.Device_2._Hints.K0-K9998 [r][c] Long
p3444
(lp3445
sVChannel_4.Device_6.Short_1
p3446
(lp3447
sVChannel_2._System._WriteOptimizationDutyCycle
p3448
(lp3449
sVChannel_0_User_Defined.Sine._Hints.R0-R9996 [r][c] Double
p3450
(lp3451
sVChannel_4.Device_6._Hints.K0-K9999 [r][c] Short
p3452
(lp3453
sV_System._Time_Second
p3454
(lp3455
sVChannel_1.Device_2._Hints.K0-K9998 [r][c] LBCD
p3456
(lp3457
sVChannel_4.Device_6.Word_2
p3458
(lp3459
sVChannel_4.Device_6.Word_1
p3460
(lp3461
sVChannel_2.Device_3._Hints.K0-K9998 LBCD
p3462
(lp3463
sVChannel_1.Device_1._System._Error
p3464
(lp3465
sVChannel_0_User_Defined.Sine._Hints.R0.0-R9999.0...R0.15-R9999.15 Boolean
p3466
(lp3467
sVChannel_4.Device_5._Hints.R0-R9999 Short
p3468
(lp3469
sVChannel_2.Device_3._Hints.R0-R9998 [r][c] Long
p3470
(lp3471
sVChannel_4.Device_5._Hints.K0-K9996 Double
p3472
(lp3473
sVChannel_0_User_Defined.User._Hints.K0.0-K9999.0...K0.15-K9999.15 Boolean
p3474
(lp3475
sVChannel_1.Device_1._Hints.K0-K9998 Float
p3476
(lp3477
sVChannel_1.Device_1._Hints.R0-R9999 [r][c] BCD
p3478
(lp3479
sVChannel_4.Device_5._Hints.K0-K9999 [r][c] Word
p3480
(lp3481
sVChannel_1.Device_1._Hints.R0-R9998 DWord
p3482
(lp3483
sVChannel_3.Device_4._Hints.K0-K9999 [r][c] Word
p3484
(lp3485
sVChannel_0_User_Defined.User._Hints.R0-R9998 [r][c] Long
p3486
(lp3487
sVChannel_0_User_Defined.Ramp.Ramp_Float
p3488
(lp3489
sVChannel_2.Device_3._Hints.K0-K9998 [r][c] Long
p3490
(lp3491
sVChannel_1.Device_2._Hints.K0-K9998 [r][c] DWord
p3492
(lp3493
ss.